(dp1
S'METTS MARK'
p2
(dp3
S'salary'
p4
I365788
sS'to_messages'
p5
I807
sS'deferral_payments'
p6
S'NaN'
p7
sS'total_payments'
p8
I1061827
sS'exercised_stock_options'
p9
g7
sS'bonus'
p10
I600000
sS'restricted_stock'
p11
I585062
sS'shared_receipt_with_poi'
p12
I702
sS'restricted_stock_deferred'
p13
g7
sS'total_stock_value'
p14
I585062
sS'expenses'
p15
I94299
sS'loan_advances'
p16
g7
sS'from_messages'
p17
I29
sS'other'
p18
I1740
sS'from_this_person_to_poi'
p19
I1
sS'poi'
p20
I00
sS'director_fees'
p21
g7
sS'deferred_income'
p22
g7
sS'long_term_incentive'
p23
g7
sS'email_address'
p24
S'mark.metts@enron.com'
p25
sS'from_poi_to_this_person'
p26
I38
ssS'BAXTER JOHN C'
p27
(dp28
g4
I267102
sg5
g7
sg6
I1295738
sg8
I5634343
sg9
I6680544
sg10
I1200000
sg11
I3942714
sg12
g7
sg13
g7
sg14
I10623258
sg15
I11200
sg16
g7
sg17
g7
sg18
I2660303
sg19
g7
sg20
I00
sg21
g7
sg22
I-1386055
sg23
I1586055
sg24
g7
sg26
g7
ssS'ELLIOTT STEVEN'
p29
(dp30
g4
I170941
sg5
g7
sg6
g7
sg8
I211725
sg9
I4890344
sg10
I350000
sg11
I1788391
sg12
g7
sg13
g7
sg14
I6678735
sg15
I78552
sg16
g7
sg17
g7
sg18
I12961
sg19
g7
sg20
I00
sg21
g7
sg22
I-400729
sg23
g7
sg24
S'steven.elliott@enron.com'
p31
sg26
g7
ssS'CORDES WILLIAM R'
p32
(dp33
g4
g7
sg5
I764
sg6
g7
sg8
g7
sg9
I651850
sg10
g7
sg11
I386335
sg12
I58
sg13
g7
sg14
I1038185
sg15
g7
sg16
g7
sg17
I12
sg18
g7
sg19
I0
sg20
I00
sg21
g7
sg22
g7
sg23
g7
sg24
S'bill.cordes@enron.com'
p34
sg26
I10
ssS'HANNON KEVIN P'
p35
(dp36
g4
I243293
sg5
I1045
sg6
g7
sg8
I288682
sg9
I5538001
sg10
I1500000
sg11
I853064
sg12
I1035
sg13
g7
sg14
I6391065
sg15
I34039
sg16
g7
sg17
I32
sg18
I11350
sg19
I21
sg20
I01
sg21
g7
sg22
I-3117011
sg23
I1617011
sg24
S'kevin.hannon@enron.com'
p37
sg26
I32
ssS'MORDAUNT KRISTINA M'
p38
(dp39
g4
I267093
sg5
g7
sg6
g7
sg8
I628522
sg9
g7
sg10
I325000
sg11
I208510
sg12
g7
sg13
g7
sg14
I208510
sg15
I35018
sg16
g7
sg17
g7
sg18
I1411
sg19
g7
sg20
I00
sg21
g7
sg22
g7
sg23
g7
sg24
S'kristina.mordaunt@enron.com'
p40
sg26
g7
ssS'MEYER ROCKFORD G'
p41
(dp42
g4
g7
sg5
I232
sg6
I1848227
sg8
I1848227
sg9
I493489
sg10
g7
sg11
I462384
sg12
I22
sg13
g7
sg14
I955873
sg15
g7
sg16
g7
sg17
I28
sg18
g7
sg19
I0
sg20
I00
sg21
g7
sg22
g7
sg23
g7
sg24
S'rockford.meyer@enron.com'
p43
sg26
I0
ssS'MCMAHON JEFFREY'
p44
(dp45
g4
I370448
sg5
I2355
sg6
g7
sg8
I4099771
sg9
I1104054
sg10
I2600000
sg11
I558801
sg12
I2228
sg13
g7
sg14
I1662855
sg15
I137108
sg16
g7
sg17
I48
sg18
I297353
sg19
I26
sg20
I00
sg21
g7
sg22
g7
sg23
I694862
sg24
S'jeffrey.mcmahon@enron.com'
p46
sg26
I58
ssS'HORTON STANLEY C'
p47
(dp48
g4
g7
sg5
I2350
sg6
I3131860
sg8
I3131860
sg9
I5210569
sg10
g7
sg11
I2046079
sg12
I1074
sg13
g7
sg14
I7256648
sg15
g7
sg16
g7
sg17
I1073
sg18
g7
sg19
I15
sg20
I00
sg21
g7
sg22
g7
sg23
g7
sg24
S'stanley.horton@enron.com'
p49
sg26
I44
ssS'PIPER GREGORY F'
p50
(dp51
g4
I197091
sg5
I1238
sg6
I1130036
sg8
I1737629
sg9
I880290
sg10
I400000
sg11
I409554
sg12
I742
sg13
I-409554
sg14
I880290
sg15
I43057
sg16
g7
sg17
I222
sg18
I778
sg19
I48
sg20
I00
sg21
g7
sg22
I-33333
sg23
g7
sg24
S'greg.piper@enron.com'
p52
sg26
I61
ssS'HUMPHREY GENE E'
p53
(dp54
g4
I130724
sg5
I128
sg6
I2964506
sg8
I3100224
sg9
I2282768
sg10
g7
sg11
g7
sg12
I119
sg13
g7
sg14
I2282768
sg15
I4994
sg16
g7
sg17
I17
sg18
g7
sg19
I17
sg20
I00
sg21
g7
sg22
g7
sg23
g7
sg24
S'gene.humphrey@enron.com'
p55
sg26
I10
ssS'UMANOFF ADAM S'
p56
(dp57
g4
I288589
sg5
I111
sg6
g7
sg8
I1130461
sg9
g7
sg10
I788750
sg11
g7
sg12
I41
sg13
g7
sg14
g7
sg15
I53122
sg16
g7
sg17
I18
sg18
g7
sg19
I0
sg20
I00
sg21
g7
sg22
g7
sg23
g7
sg24
S'adam.umanoff@enron.com'
p58
sg26
I12
ssS'BLACHMAN JEREMY M'
p59
(dp60
g4
I248546
sg5
I2475
sg6
g7
sg8
I2014835
sg9
I765313
sg10
I850000
sg11
I189041
sg12
I2326
sg13
g7
sg14
I954354
sg15
I84208
sg16
g7
sg17
I14
sg18
I272
sg19
I2
sg20
I00
sg21
g7
sg22
g7
sg23
I831809
sg24
S'jeremy.blachman@enron.com'
p61
sg26
I25
ssS'SUNDE MARTIN'
p62
(dp63
g4
I257486
sg5
I2647
sg6
g7
sg8
I1545059
sg9
g7
sg10
I700000
sg11
I698920
sg12
I2565
sg13
g7
sg14
I698920
sg15
g7
sg16
g7
sg17
I38
sg18
I111122
sg19
I13
sg20
I00
sg21
g7
sg22
g7
sg23
I476451
sg24
S'marty.sunde@enron.com'
p64
sg26
I37
ssS'GIBBS DANA R'
p65
(dp66
g4
g7
sg5
I169
sg6
I504610
sg8
I966522
sg9
I2218275
sg10
g7
sg11
g7
sg12
I23
sg13
g7
sg14
I2218275
sg15
g7
sg16
g7
sg17
I12
sg18
g7
sg19
I0
sg20
I00
sg21
g7
sg22
g7
sg23
I461912
sg24
S'dana.gibbs@enron.com'
p67
sg26
I0
ssS'LOWRY CHARLES P'
p68
(dp69
g4
g7
sg5
g7
sg6
g7
sg8
g7
sg9
I372205
sg10
g7
sg11
I153686
sg12
g7
sg13
I-153686
sg14
I372205
sg15
g7
sg16
g7
sg17
g7
sg18
g7
sg19
g7
sg20
I00
sg21
g7
sg22
g7
sg23
g7
sg24
g7
sg26
g7
ssS'COLWELL WESLEY'
p70
(dp71
g4
I288542
sg5
I1758
sg6
I27610
sg8
I1490344
sg9
g7
sg10
I1200000
sg11
I698242
sg12
I1132
sg13
g7
sg14
I698242
sg15
I16514
sg16
g7
sg17
I40
sg18
I101740
sg19
I11
sg20
I01
sg21
g7
sg22
I-144062
sg23
g7
sg24
S'wes.colwell@enron.com'
p72
sg26
I240
ssS'MULLER MARK S'
p73
(dp74
g4
I251654
sg5
I136
sg6
I842924
sg8
I3202070
sg9
I1056320
sg10
I1100000
sg11
I360528
sg12
I114
sg13
g7
sg14
I1416848
sg15
g7
sg16
g7
sg17
I16
sg18
I947
sg19
I0
sg20
I00
sg21
g7
sg22
I-719000
sg23
I1725545
sg24
S's..muller@enron.com'
p75
sg26
I12
ssS'JACKSON CHARLENE R'
p76
(dp77
g4
I288558
sg5
I258
sg6
g7
sg8
I551174
sg9
I185063
sg10
I250000
sg11
I540672
sg12
I117
sg13
g7
sg14
I725735
sg15
I10181
sg16
g7
sg17
I56
sg18
I2435
sg19
I19
sg20
I00
sg21
g7
sg22
g7
sg23
g7
sg24
S'charlene.jackson@enron.com'
p78
sg26
I25
ssS'WESTFAHL RICHARD K'
p79
(dp80
g4
I63744
sg5
g7
sg6
g7
sg8
I762135
sg9
g7
sg10
g7
sg11
I384930
sg12
g7
sg13
g7
sg14
I384930
sg15
I51870
sg16
g7
sg17
g7
sg18
I401130
sg19
g7
sg20
I00
sg21
g7
sg22
I-10800
sg23
I256191
sg24
S'dick.westfahl@enron.com'
p81
sg26
g7
ssS'WALTERS GARETH W'
p82
(dp83
g4
g7
sg5
g7
sg6
I53625
sg8
I87410
sg9
I1030329
sg10
g7
sg11
g7
sg12
g7
sg13
g7
sg14
I1030329
sg15
I33785
sg16
g7
sg17
g7
sg18
g7
sg19
g7
sg20
I00
sg21
g7
sg22
g7
sg23
g7
sg24
g7
sg26
g7
ssS'WALLS JR ROBERT H'
p84
(dp85
g4
I357091
sg5
I671
sg6
g7
sg8
I1798780
sg9
I4346544
sg10
I850000
sg11
I1552453
sg12
I215
sg13
g7
sg14
I5898997
sg15
I50936
sg16
g7
sg17
I146
sg18
I2
sg19
I0
sg20
I00
sg21
g7
sg22
g7
sg23
I540751
sg24
S'rob.walls@enron.com'
p86
sg26
I17
ssS'KITCHEN LOUISE'
p87
(dp88
g4
I271442
sg5
I8305
sg6
g7
sg8
I3471141
sg9
I81042
sg10
I3100000
sg11
I466101
sg12
I3669
sg13
g7
sg14
I547143
sg15
I5774
sg16
g7
sg17
I1728
sg18
I93925
sg19
I194
sg20
I00
sg21
g7
sg22
g7
sg23
g7
sg24
S'louise.kitchen@enron.com'
p89
sg26
I251
ssS'CHAN RONNIE'
p90
(dp91
g4
g7
sg5
g7
sg6
g7
sg8
g7
sg9
g7
sg10
g7
sg11
I32460
sg12
g7
sg13
I-32460
sg14
g7
sg15
g7
sg16
g7
sg17
g7
sg18
g7
sg19
g7
sg20
I00
sg21
I98784
sg22
I-98784
sg23
g7
sg24
g7
sg26
g7
ssS'SHANKMAN JEFFREY A'
p92
(dp93
g4
I304110
sg5
I3221
sg6
g7
sg8
I3038702
sg9
I1441898
sg10
I2000000
sg11
I630137
sg12
I1730
sg13
g7
sg14
I2072035
sg15
I178979
sg16
g7
sg17
I2681
sg18
I1191
sg19
I83
sg20
I00
sg21
g7
sg22
g7
sg23
I554422
sg24
S'jeffrey.shankman@enron.com'
p94
sg26
I94
ssS'WODRASKA JOHN'
p95
(dp96
g4
g7
sg5
g7
sg6
g7
sg8
I189583
sg9
g7
sg10
g7
sg11
g7
sg12
g7
sg13
g7
sg14
g7
sg15
g7
sg16
g7
sg17
g7
sg18
I189583
sg19
g7
sg20
I00
sg21
g7
sg22
g7
sg23
g7
sg24
S'john.wodraska@enron.com'
p97
sg26
g7
ssS'BERGSIEKER RICHARD P'
p98
(dp99
g4
I187922
sg5
I383
sg6
g7
sg8
I618850
sg9
g7
sg10
I250000
sg11
I659249
sg12
I233
sg13
g7
sg14
I659249
sg15
I59175
sg16
g7
sg17
I59
sg18
I427316
sg19
I0
sg20
I00
sg21
g7
sg22
I-485813
sg23
I180250
sg24
S'rick.bergsieker@enron.com'
p100
sg26
I4
ssS'URQUHART JOHN A'
p101
(dp102
g4
g7
sg5
g7
sg6
g7
sg8
I228656
sg9
g7
sg10
g7
sg11
g7
sg12
g7
sg13
g7
sg14
g7
sg15
I228656
sg16
g7
sg17
g7
sg18
g7
sg19
g7
sg20
I00
sg21
I36666
sg22
I-36666
sg23
g7
sg24
g7
sg26
g7
ssS'BIBI PHILIPPE A'
p103
(dp104
g4
I213625
sg5
I1607
sg6
g7
sg8
I2047593
sg9
I1465734
sg10
I1000000
sg11
I378082
sg12
I1336
sg13
g7
sg14
I1843816
sg15
I38559
sg16
g7
sg17
I40
sg18
I425688
sg19
I8
sg20
I00
sg21
g7
sg22
g7
sg23
I369721
sg24
S'philippe.bibi@enron.com'
p105
sg26
I23
ssS'RIEKER PAULA H'
p106
(dp107
g4
I249201
sg5
I1328
sg6
I214678
sg8
I1099100
sg9
I1635238
sg10
I700000
sg11
I283649
sg12
I1258
sg13
g7
sg14
I1918887
sg15
I33271
sg16
g7
sg17
I82
sg18
I1950
sg19
I48
sg20
I01
sg21
g7
sg22
I-100000
sg23
g7
sg24
S'paula.rieker@enron.com'
p108
sg26
I35
ssS'WHALEY DAVID A'
p109
(dp110
g4
g7
sg5
g7
sg6
g7
sg8
g7
sg9
I98718
sg10
g7
sg11
g7
sg12
g7
sg13
g7
sg14
I98718
sg15
g7
sg16
g7
sg17
g7
sg18
g7
sg19
g7
sg20
I00
sg21
g7
sg22
g7
sg23
g7
sg24
g7
sg26
g7
ssS'BECK SALLY W'
p111
(dp112
g4
I231330
sg5
I7315
sg6
g7
sg8
I969068
sg9
g7
sg10
I700000
sg11
I126027
sg12
I2639
sg13
g7
sg14
I126027
sg15
I37172
sg16
g7
sg17
I4343
sg18
I566
sg19
I386
sg20
I00
sg21
g7
sg22
g7
sg23
g7
sg24
S'sally.beck@enron.com'
p113
sg26
I144
ssS'HAUG DAVID L'
p114
(dp115
g4
g7
sg5
I573
sg6
g7
sg8
I475
sg9
g7
sg10
g7
sg11
I2217299
sg12
I471
sg13
g7
sg14
I2217299
sg15
I475
sg16
g7
sg17
I19
sg18
g7
sg19
I7
sg20
I00
sg21
g7
sg22
g7
sg23
g7
sg24
S'david.haug@enron.com'
p116
sg26
I4
ssS'ECHOLS JOHN B'
p117
(dp118
g4
I182245
sg5
g7
sg6
g7
sg8
I2692324
sg9
I601438
sg10
I200000
sg11
I407503
sg12
g7
sg13
g7
sg14
I1008941
sg15
I21530
sg16
g7
sg17
g7
sg18
I53775
sg19
g7
sg20
I00
sg21
g7
sg22
g7
sg23
I2234774
sg24
S'john.echols@enron.com'
p119
sg26
g7
ssS'MENDELSOHN JOHN'
p120
(dp121
g4
g7
sg5
g7
sg6
g7
sg8
I148
sg9
g7
sg10
g7
sg11
g7
sg12
g7
sg13
g7
sg14
g7
sg15
I148
sg16
g7
sg17
g7
sg18
g7
sg19
g7
sg20
I00
sg21
I103750
sg22
I-103750
sg23
g7
sg24
g7
sg26
g7
ssS'HICKERSON GARY J'
p122
(dp123
g4
I211788
sg5
I1320
sg6
g7
sg8
I2081796
sg9
g7
sg10
I1700000
sg11
I441096
sg12
I900
sg13
g7
sg14
I441096
sg15
I98849
sg16
g7
sg17
I27
sg18
I1936
sg19
I1
sg20
I00
sg21
g7
sg22
g7
sg23
I69223
sg24
S'gary.hickerson@enron.com'
p124
sg26
I40
ssS'CLINE KENNETH W'
p125
(dp126
g4
g7
sg5
g7
sg6
g7
sg8
g7
sg9
g7
sg10
g7
sg11
I662086
sg12
g7
sg13
I-472568
sg14
I189518
sg15
g7
sg16
g7
sg17
g7
sg18
g7
sg19
g7
sg20
I00
sg21
g7
sg22
g7
sg23
g7
sg24
g7
sg26
g7
ssS'LEWIS RICHARD'
p127
(dp128
g4
g7
sg5
I952
sg6
g7
sg8
g7
sg9
I850477
sg10
g7
sg11
g7
sg12
I739
sg13
g7
sg14
I850477
sg15
g7
sg16
g7
sg17
I26
sg18
g7
sg19
I0
sg20
I00
sg21
g7
sg22
g7
sg23
g7
sg24
S'richard.lewis@enron.com'
p129
sg26
I10
ssS'HAYES ROBERT E'
p130
(dp131
g4
g7
sg5
I504
sg6
I7961
sg8
I7961
sg9
g7
sg10
g7
sg11
I151418
sg12
I50
sg13
g7
sg14
I151418
sg15
g7
sg16
g7
sg17
I12
sg18
g7
sg19
I0
sg20
I00
sg21
g7
sg22
g7
sg23
g7
sg24
S'robert.hayes@enron.com'
p132
sg26
I16
ssS'MCCARTY DANNY J'
p133
(dp134
g4
g7
sg5
I1433
sg6
g7
sg8
g7
sg9
I664375
sg10
g7
sg11
I94556
sg12
I508
sg13
g7
sg14
I758931
sg15
g7
sg16
g7
sg17
I215
sg18
g7
sg19
I2
sg20
I00
sg21
g7
sg22
g7
sg23
g7
sg24
S'danny.mccarty@enron.com'
p135
sg26
I25
ssS'KOPPER MICHAEL J'
p136
(dp137
g4
I224305
sg5
g7
sg6
g7
sg8
I2652612
sg9
g7
sg10
I800000
sg11
I985032
sg12
g7
sg13
g7
sg14
I985032
sg15
I118134
sg16
g7
sg17
g7
sg18
I907502
sg19
g7
sg20
I01
sg21
g7
sg22
g7
sg23
I602671
sg24
S'michael.kopper@enron.com'
p138
sg26
g7
ssS'LEFF DANIEL P'
p139
(dp140
g4
I273746
sg5
I2822
sg6
g7
sg8
I2664228
sg9
g7
sg10
I1000000
sg11
I360528
sg12
I2672
sg13
g7
sg14
I360528
sg15
g7
sg16
g7
sg17
I63
sg18
I3083
sg19
I14
sg20
I00
sg21
g7
sg22
g7
sg23
I1387399
sg24
S'dan.leff@enron.com'
p141
sg26
I67
ssS'LAVORATO JOHN J'
p142
(dp143
g4
I339288
sg5
I7259
sg6
g7
sg8
I10425757
sg9
I4158995
sg10
I8000000
sg11
I1008149
sg12
I3962
sg13
g7
sg14
I5167144
sg15
I49537
sg16
g7
sg17
I2585
sg18
I1552
sg19
I411
sg20
I00
sg21
g7
sg22
g7
sg23
I2035380
sg24
S'john.lavorato@enron.com'
p144
sg26
I528
ssS'BERBERIAN DAVID'
p145
(dp146
g4
I216582
sg5
g7
sg6
g7
sg8
I228474
sg9
I1624396
sg10
g7
sg11
I869220
sg12
g7
sg13
g7
sg14
I2493616
sg15
I11892
sg16
g7
sg17
g7
sg18
g7
sg19
g7
sg20
I00
sg21
g7
sg22
g7
sg23
g7
sg24
S'david.berberian@enron.com'
p147
sg26
g7
ssS'DETMERING TIMOTHY J'
p148
(dp149
g4
I210500
sg5
g7
sg6
I875307
sg8
I1204583
sg9
I2027865
sg10
I425000
sg11
I315068
sg12
g7
sg13
I-315068
sg14
I2027865
sg15
I52255
sg16
g7
sg17
g7
sg18
I1105
sg19
g7
sg20
I00
sg21
g7
sg22
I-775241
sg23
I415657
sg24
S'timothy.detmering@enron.com'
p150
sg26
g7
ssS'WAKEHAM JOHN'
p151
(dp152
g4
g7
sg5
g7
sg6
g7
sg8
I213071
sg9
g7
sg10
g7
sg11
g7
sg12
g7
sg13
g7
sg14
g7
sg15
I103773
sg16
g7
sg17
g7
sg18
g7
sg19
g7
sg20
I00
sg21
I109298
sg22
g7
sg23
g7
sg24
g7
sg26
g7
ssS'POWERS WILLIAM'
p153
(dp154
g4
g7
sg5
I653
sg6
g7
sg8
g7
sg9
g7
sg10
g7
sg11
g7
sg12
I12
sg13
g7
sg14
g7
sg15
g7
sg16
g7
sg17
I26
sg18
g7
sg19
I0
sg20
I00
sg21
I17500
sg22
I-17500
sg23
g7
sg24
S'ken.powers@enron.com'
p155
sg26
I0
ssS'GOLD JOSEPH'
p156
(dp157
g4
I272880
sg5
g7
sg6
g7
sg8
I2146973
sg9
I436515
sg10
I750000
sg11
I441096
sg12
g7
sg13
g7
sg14
I877611
sg15
g7
sg16
g7
sg17
g7
sg18
I819288
sg19
g7
sg20
I00
sg21
g7
sg22
g7
sg23
I304805
sg24
S'joe.gold@enron.com'
p158
sg26
g7
ssS'BANNANTINE JAMES M'
p159
(dp160
g4
I477
sg5
I566
sg6
g7
sg8
I916197
sg9
I4046157
sg10
g7
sg11
I1757552
sg12
I465
sg13
I-560222
sg14
I5243487
sg15
I56301
sg16
g7
sg17
I29
sg18
I864523
sg19
I0
sg20
I00
sg21
g7
sg22
I-5104
sg23
g7
sg24
S'james.bannantine@enron.com'
p161
sg26
I39
ssS'DUNCAN JOHN H'
p162
(dp163
g4
g7
sg5
g7
sg6
g7
sg8
I77492
sg9
I371750
sg10
g7
sg11
g7
sg12
g7
sg13
g7
sg14
I371750
sg15
g7
sg16
g7
sg17
g7
sg18
g7
sg19
g7
sg20
I00
sg21
I102492
sg22
I-25000
sg23
g7
sg24
g7
sg26
g7
ssS'SHAPIRO RICHARD S'
p164
(dp165
g4
I269076
sg5
I15149
sg6
g7
sg8
I1057548
sg9
I607837
sg10
I650000
sg11
I379164
sg12
I4527
sg13
g7
sg14
I987001
sg15
I137767
sg16
g7
sg17
I1215
sg18
I705
sg19
I65
sg20
I00
sg21
g7
sg22
g7
sg23
g7
sg24
S'richard.shapiro@enron.com'
p166
sg26
I74
ssS'SHERRIFF JOHN R'
p167
(dp168
g4
I428780
sg5
I3187
sg6
g7
sg8
I4335388
sg9
I1835558
sg10
I1500000
sg11
I1293424
sg12
I2103
sg13
g7
sg14
I3128982
sg15
g7
sg16
g7
sg17
I92
sg18
I1852186
sg19
I23
sg20
I00
sg21
g7
sg22
g7
sg23
I554422
sg24
S'john.sherriff@enron.com'
p169
sg26
I28
ssS'SHELBY REX'
p170
(dp171
g4
I211844
sg5
I225
sg6
g7
sg8
I2003885
sg9
I1624396
sg10
I200000
sg11
I869220
sg12
I91
sg13
g7
sg14
I2493616
sg15
I22884
sg16
g7
sg17
I39
sg18
I1573324
sg19
I14
sg20
I01
sg21
g7
sg22
I-4167
sg23
g7
sg24
S'rex.shelby@enron.com'
p172
sg26
I13
ssS'LEMAISTRE CHARLES'
p173
(dp174
g4
g7
sg5
g7
sg6
g7
sg8
I87492
sg9
I412878
sg10
g7
sg11
g7
sg12
g7
sg13
g7
sg14
I412878
sg15
g7
sg16
g7
sg17
g7
sg18
g7
sg19
g7
sg20
I00
sg21
I112492
sg22
I-25000
sg23
g7
sg24
g7
sg26
g7
ssS'DEFFNER JOSEPH M'
p175
(dp176
g4
I206121
sg5
I714
sg6
g7
sg8
I1208649
sg9
I17378
sg10
I600000
sg11
I141833
sg12
I552
sg13
g7
sg14
I159211
sg15
I41626
sg16
g7
sg17
I74
sg18
I25553
sg19
I4
sg20
I00
sg21
g7
sg22
g7
sg23
I335349
sg24
S'joseph.deffner@enron.com'
p177
sg26
I115
ssS'KISHKILL JOSEPH G'
p178
(dp179
g4
I174246
sg5
g7
sg6
g7
sg8
I704896
sg9
g7
sg10
g7
sg11
I1034346
sg12
g7
sg13
g7
sg14
I1034346
sg15
I116335
sg16
g7
sg17
g7
sg18
I465357
sg19
g7
sg20
I00
sg21
g7
sg22
I-51042
sg23
g7
sg24
S'joe.kishkill@enron.com'
p180
sg26
g7
ssS'WHALLEY LAWRENCE G'
p181
(dp182
g4
I510364
sg5
I6019
sg6
g7
sg8
I4677574
sg9
I3282960
sg10
I3000000
sg11
I2796177
sg12
I3920
sg13
g7
sg14
I6079137
sg15
I57838
sg16
g7
sg17
I556
sg18
I301026
sg19
I24
sg20
I00
sg21
g7
sg22
g7
sg23
I808346
sg24
S'greg.whalley@enron.com'
p183
sg26
I186
ssS'MCCONNELL MICHAEL S'
p184
(dp185
g4
I365038
sg5
I3329
sg6
g7
sg8
I2101364
sg9
I1623010
sg10
I1100000
sg11
I1478269
sg12
I2189
sg13
g7
sg14
I3101279
sg15
I81364
sg16
g7
sg17
I2742
sg18
I540
sg19
I194
sg20
I00
sg21
g7
sg22
g7
sg23
I554422
sg24
S'mike.mcconnell@enron.com'
p186
sg26
I92
ssS'PIRO JIM'
p187
(dp188
g4
g7
sg5
I58
sg6
g7
sg8
g7
sg9
g7
sg10
g7
sg11
I47304
sg12
I3
sg13
g7
sg14
I47304
sg15
g7
sg16
g7
sg17
I16
sg18
g7
sg19
I1
sg20
I00
sg21
g7
sg22
g7
sg23
g7
sg24
S'jim.piro@enron.com'
p189
sg26
I0
ssS'DELAINEY DAVID W'
p190
(dp191
g4
I365163
sg5
I3093
sg6
g7
sg8
I4747979
sg9
I2291113
sg10
I3000000
sg11
I1323148
sg12
I2097
sg13
g7
sg14
I3614261
sg15
I86174
sg16
g7
sg17
I3069
sg18
I1661
sg19
I609
sg20
I01
sg21
g7
sg22
g7
sg23
I1294981
sg24
S'david.delainey@enron.com'
p192
sg26
I66
ssS'SULLIVAN-SHAKLOVITZ COLLEEN'
p193
(dp194
g4
I162779
sg5
g7
sg6
I181993
sg8
I999356
sg9
I1362375
sg10
I100000
sg11
g7
sg12
g7
sg13
g7
sg14
I1362375
sg15
g7
sg16
g7
sg17
g7
sg18
I162
sg19
g7
sg20
I00
sg21
g7
sg22
g7
sg23
I554422
sg24
g7
sg26
g7
ssS'WROBEL BRUCE'
p195
(dp196
g4
g7
sg5
g7
sg6
g7
sg8
g7
sg9
I139130
sg10
g7
sg11
g7
sg12
g7
sg13
g7
sg14
I139130
sg15
g7
sg16
g7
sg17
g7
sg18
g7
sg19
g7
sg20
I00
sg21
g7
sg22
g7
sg23
g7
sg24
g7
sg26
g7
ssS'LINDHOLM TOD A'
p197
(dp198
g4
I236457
sg5
g7
sg6
I204075
sg8
I875889
sg9
I2549361
sg10
I200000
sg11
I514847
sg12
g7
sg13
g7
sg14
I3064208
sg15
I57727
sg16
g7
sg17
g7
sg18
I2630
sg19
g7
sg20
I00
sg21
g7
sg22
g7
sg23
I175000
sg24
S'tod.lindholm@enron.com'
p199
sg26
g7
ssS'MEYER JEROME J'
p200
(dp201
g4
g7
sg5
g7
sg6
g7
sg8
I2151
sg9
g7
sg10
g7
sg11
g7
sg12
g7
sg13
g7
sg14
g7
sg15
I2151
sg16
g7
sg17
g7
sg18
g7
sg19
g7
sg20
I00
sg21
I38346
sg22
I-38346
sg23
g7
sg24
g7
sg26
g7
ssS'LAY KENNETH L'
p202
(dp203
g4
I1072321
sg5
I4273
sg6
I202911
sg8
I103559793
sg9
I34348384
sg10
I7000000
sg11
I14761694
sg12
I2411
sg13
g7
sg14
I49110078
sg15
I99832
sg16
I81525000
sg17
I36
sg18
I10359729
sg19
I16
sg20
I01
sg21
g7
sg22
I-300000
sg23
I3600000
sg24
S'kenneth.lay@enron.com'
p204
sg26
I123
ssS'BUTTS ROBERT H'
p205
(dp206
g4
I261516
sg5
g7
sg6
g7
sg8
I1271582
sg9
g7
sg10
I750000
sg11
I417619
sg12
g7
sg13
g7
sg14
I417619
sg15
I9410
sg16
g7
sg17
g7
sg18
I150656
sg19
g7
sg20
I00
sg21
g7
sg22
I-75000
sg23
I175000
sg24
S'bob.butts@enron.com'
p207
sg26
g7
ssS'OLSON CINDY K'
p208
(dp209
g4
I329078
sg5
I1184
sg6
I77716
sg8
I1321557
sg9
I1637034
sg10
I750000
sg11
I969729
sg12
I856
sg13
g7
sg14
I2606763
sg15
I63791
sg16
g7
sg17
I52
sg18
I972
sg19
I15
sg20
I00
sg21
g7
sg22
g7
sg23
I100000
sg24
S'cindy.olson@enron.com'
p210
sg26
I20
ssS'MCDONALD REBECCA'
p211
(dp212
g4
g7
sg5
I894
sg6
g7
sg8
g7
sg9
I757301
sg10
g7
sg11
I934065
sg12
I720
sg13
g7
sg14
I1691366
sg15
g7
sg16
g7
sg17
I13
sg18
g7
sg19
I1
sg20
I00
sg21
g7
sg22
g7
sg23
g7
sg24
S'rebecca.mcdonald@enron.com'
p213
sg26
I54
ssS'CUMBERLAND MICHAEL S'
p214
(dp215
g4
I184899
sg5
g7
sg6
g7
sg8
I807956
sg9
g7
sg10
I325000
sg11
I207940
sg12
g7
sg13
g7
sg14
I207940
sg15
I22344
sg16
g7
sg17
g7
sg18
I713
sg19
g7
sg20
I00
sg21
g7
sg22
g7
sg23
I275000
sg24
g7
sg26
g7
ssS'GAHN ROBERT S'
p216
(dp217
g4
I192008
sg5
g7
sg6
I73122
sg8
I900585
sg9
I83237
sg10
I509870
sg11
I235370
sg12
g7
sg13
g7
sg14
I318607
sg15
I50080
sg16
g7
sg17
g7
sg18
I76547
sg19
g7
sg20
I00
sg21
g7
sg22
I-1042
sg23
g7
sg24
g7
sg26
g7
ssS'MCCLELLAN GEORGE'
p218
(dp219
g4
I263413
sg5
I1744
sg6
g7
sg8
I1318763
sg9
I506765
sg10
I900000
sg11
I441096
sg12
I1469
sg13
g7
sg14
I947861
sg15
I228763
sg16
g7
sg17
I49
sg18
I51587
sg19
I0
sg20
I00
sg21
g7
sg22
I-125000
sg23
g7
sg24
S'george.mcclellan@enron.com'
p220
sg26
I52
ssS'HERMANN ROBERT J'
p221
(dp222
g4
I262663
sg5
g7
sg6
g7
sg8
I1297461
sg9
I187500
sg10
I700000
sg11
I480632
sg12
g7
sg13
g7
sg14
I668132
sg15
I48357
sg16
g7
sg17
g7
sg18
I416441
sg19
g7
sg20
I00
sg21
g7
sg22
I-280000
sg23
I150000
sg24
S'robert.hermann@enron.com'
p223
sg26
g7
ssS'SCRIMSHAW MATTHEW'
p224
(dp225
g4
g7
sg5
g7
sg6
g7
sg8
g7
sg9
I759557
sg10
g7
sg11
g7
sg12
g7
sg13
g7
sg14
I759557
sg15
g7
sg16
g7
sg17
g7
sg18
g7
sg19
g7
sg20
I00
sg21
g7
sg22
g7
sg23
g7
sg24
S'matthew.scrimshaw@enron.com'
p226
sg26
g7
ssS'GATHMANN WILLIAM D'
p227
(dp228
g4
g7
sg5
g7
sg6
g7
sg8
g7
sg9
I1753766
sg10
g7
sg11
I264013
sg12
g7
sg13
I-72419
sg14
I1945360
sg15
g7
sg16
g7
sg17
g7
sg18
g7
sg19
g7
sg20
I00
sg21
g7
sg22
g7
sg23
g7
sg24
g7
sg26
g7
ssS'HAEDICKE MARK E'
p229
(dp230
g4
I374125
sg5
I4009
sg6
I2157527
sg8
I3859065
sg9
I608750
sg10
I1150000
sg11
I524169
sg12
I1847
sg13
I-329825
sg14
I803094
sg15
I76169
sg16
g7
sg17
I1941
sg18
I52382
sg19
I61
sg20
I00
sg21
g7
sg22
I-934484
sg23
I983346
sg24
S'mark.haedicke@enron.com'
p231
sg26
I180
ssS'BOWEN JR RAYMOND M'
p232
(dp233
g4
I278601
sg5
I1858
sg6
g7
sg8
I2669589
sg9
g7
sg10
I1350000
sg11
I252055
sg12
I1593
sg13
g7
sg14
I252055
sg15
I65907
sg16
g7
sg17
I27
sg18
I1621
sg19
I15
sg20
I01
sg21
g7
sg22
I-833
sg23
I974293
sg24
S'raymond.bowen@enron.com'
p234
sg26
I140
ssS'GILLIS JOHN'
p235
(dp236
g4
g7
sg5
g7
sg6
g7
sg8
g7
sg9
I9803
sg10
g7
sg11
I75838
sg12
g7
sg13
g7
sg14
I85641
sg15
g7
sg16
g7
sg17
g7
sg18
g7
sg19
g7
sg20
I00
sg21
g7
sg22
g7
sg23
g7
sg24
g7
sg26
g7
ssS'FITZGERALD JAY L'
p237
(dp238
g4
I199157
sg5
I936
sg6
g7
sg8
I1414857
sg9
I664461
sg10
I350000
sg11
I956775
sg12
I723
sg13
g7
sg14
I1621236
sg15
I23870
sg16
g7
sg17
I16
sg18
I285414
sg19
I8
sg20
I00
sg21
g7
sg22
g7
sg23
I556416
sg24
S'jay.fitzgerald@enron.com'
p239
sg26
I1
ssS'MORAN MICHAEL P'
p240
(dp241
g4
g7
sg5
I672
sg6
g7
sg8
g7
sg9
I59539
sg10
g7
sg11
I161602
sg12
I127
sg13
g7
sg14
I221141
sg15
g7
sg16
g7
sg17
I19
sg18
g7
sg19
I0
sg20
I00
sg21
g7
sg22
g7
sg23
g7
sg24
S'michael.moran@enron.com'
p242
sg26
I0
ssS'REDMOND BRIAN L'
p243
(dp244
g4
I96840
sg5
I1671
sg6
g7
sg8
I111529
sg9
I7509039
sg10
g7
sg11
I381285
sg12
I1063
sg13
g7
sg14
I7890324
sg15
I14689
sg16
g7
sg17
I221
sg18
g7
sg19
I49
sg20
I00
sg21
g7
sg22
g7
sg23
g7
sg24
S'brian.redmond@enron.com'
p245
sg26
I204
ssS'BAZELIDES PHILIP J'
p246
(dp247
g4
I80818
sg5
g7
sg6
I684694
sg8
I860136
sg9
I1599641
sg10
g7
sg11
g7
sg12
g7
sg13
g7
sg14
I1599641
sg15
g7
sg16
g7
sg17
g7
sg18
I874
sg19
g7
sg20
I00
sg21
g7
sg22
g7
sg23
I93750
sg24
g7
sg26
g7
ssS'BELDEN TIMOTHY N'
p248
(dp249
g4
I213999
sg5
I7991
sg6
I2144013
sg8
I5501630
sg9
I953136
sg10
I5249999
sg11
I157569
sg12
I5521
sg13
g7
sg14
I1110705
sg15
I17355
sg16
g7
sg17
I484
sg18
I210698
sg19
I108
sg20
I01
sg21
g7
sg22
I-2334434
sg23
g7
sg24
S'tim.belden@enron.com'
p250
sg26
I228
ssS'DURAN WILLIAM D'
p251
(dp252
g4
I210692
sg5
I904
sg6
g7
sg8
I2093263
sg9
I1451869
sg10
I750000
sg11
I189041
sg12
I599
sg13
g7
sg14
I1640910
sg15
I25785
sg16
g7
sg17
I12
sg18
I1568
sg19
I3
sg20
I00
sg21
g7
sg22
g7
sg23
I1105218
sg24
S'w.duran@enron.com'
p253
sg26
I106
ssS'THORN TERENCE H'
p254
(dp255
g4
I222093
sg5
I266
sg6
I16586
sg8
I911453
sg9
I4452476
sg10
g7
sg11
I365320
sg12
I73
sg13
g7
sg14
I4817796
sg15
I46145
sg16
g7
sg17
I41
sg18
I426629
sg19
I0
sg20
I00
sg21
g7
sg22
g7
sg23
I200000
sg24
S'terence.thorn@enron.com'
p256
sg26
I0
ssS'FASTOW ANDREW S'
p257
(dp258
g4
I440698
sg5
g7
sg6
g7
sg8
I2424083
sg9
g7
sg10
I1300000
sg11
I1794412
sg12
g7
sg13
g7
sg14
I1794412
sg15
I55921
sg16
g7
sg17
g7
sg18
I277464
sg19
g7
sg20
I01
sg21
g7
sg22
I-1386055
sg23
I1736055
sg24
S'andrew.fastow@enron.com'
p259
sg26
g7
ssS'FOY JOE'
p260
(dp261
g4
g7
sg5
I57
sg6
I181755
sg8
I181755
sg9
I343434
sg10
g7
sg11
g7
sg12
I2
sg13
g7
sg14
I343434
sg15
g7
sg16
g7
sg17
I13
sg18
g7
sg19
I0
sg20
I00
sg21
g7
sg22
g7
sg23
g7
sg24
S'tracy.foy@enron.com'
p262
sg26
I0
ssS'CALGER CHRISTOPHER F'
p263
(dp264
g4
I240189
sg5
I2598
sg6
g7
sg8
I1639297
sg9
g7
sg10
I1250000
sg11
I126027
sg12
I2188
sg13
g7
sg14
I126027
sg15
I35818
sg16
g7
sg17
I144
sg18
I486
sg19
I25
sg20
I01
sg21
g7
sg22
I-262500
sg23
I375304
sg24
S'christopher.calger@enron.com'
p265
sg26
I199
ssS'RICE KENNETH D'
p266
(dp267
g4
I420636
sg5
I905
sg6
g7
sg8
I505050
sg9
I19794175
sg10
I1750000
sg11
I2748364
sg12
I864
sg13
g7
sg14
I22542539
sg15
I46950
sg16
g7
sg17
I18
sg18
I174839
sg19
I4
sg20
I01
sg21
g7
sg22
I-3504386
sg23
I1617011
sg24
S'ken.rice@enron.com'
p268
sg26
I42
ssS'KAMINSKI WINCENTY J'
p269
(dp270
g4
I275101
sg5
I4607
sg6
g7
sg8
I1086821
sg9
I850010
sg10
I400000
sg11
I126027
sg12
I583
sg13
g7
sg14
I976037
sg15
I83585
sg16
g7
sg17
I14368
sg18
I4669
sg19
I171
sg20
I00
sg21
g7
sg22
g7
sg23
I323466
sg24
S'vince.kaminski@enron.com'
p271
sg26
I41
ssS'LOCKHART EUGENE E'
p272
(dp273
g4
g7
sg5
g7
sg6
g7
sg8
g7
sg9
g7
sg10
g7
sg11
g7
sg12
g7
sg13
g7
sg14
g7
sg15
g7
sg16
g7
sg17
g7
sg18
g7
sg19
g7
sg20
I00
sg21
g7
sg22
g7
sg23
g7
sg24
g7
sg26
g7
ssS'COX DAVID'
p274
(dp275
g4
I314288
sg5
I102
sg6
g7
sg8
I1101393
sg9
I117551
sg10
I800000
sg11
I378082
sg12
I71
sg13
g7
sg14
I495633
sg15
I27861
sg16
g7
sg17
I33
sg18
I494
sg19
I4
sg20
I00
sg21
g7
sg22
I-41250
sg23
g7
sg24
S'chip.cox@enron.com'
p276
sg26
I0
ssS'OVERDYKE JR JERE C'
p277
(dp278
g4
I94941
sg5
g7
sg6
g7
sg8
I249787
sg9
I5266578
sg10
g7
sg11
I2041016
sg12
g7
sg13
g7
sg14
I7307594
sg15
I18834
sg16
g7
sg17
g7
sg18
I176
sg19
g7
sg20
I00
sg21
g7
sg22
g7
sg23
I135836
sg24
S'jere.overdyke@enron.com'
p279
sg26
g7
ssS'PEREIRA PAULO V. FERRAZ'
p280
(dp281
g4
g7
sg5
g7
sg6
g7
sg8
I27942
sg9
g7
sg10
g7
sg11
g7
sg12
g7
sg13
g7
sg14
g7
sg15
I27942
sg16
g7
sg17
g7
sg18
g7
sg19
g7
sg20
I00
sg21
I101250
sg22
I-101250
sg23
g7
sg24
g7
sg26
g7
ssS'STABLER FRANK'
p282
(dp283
g4
I239502
sg5
g7
sg6
g7
sg8
I1112087
sg9
g7
sg10
I500000
sg11
I511734
sg12
g7
sg13
g7
sg14
I511734
sg15
I16514
sg16
g7
sg17
g7
sg18
I356071
sg19
g7
sg20
I00
sg21
g7
sg22
g7
sg23
g7
sg24
S'frank.stabler@enron.com'
p284
sg26
g7
ssS'SKILLING JEFFREY K'
p285
(dp286
g4
I1111258
sg5
I3627
sg6
g7
sg8
I8682716
sg9
I19250000
sg10
I5600000
sg11
I6843672
sg12
I2042
sg13
g7
sg14
I26093672
sg15
I29336
sg16
g7
sg17
I108
sg18
I22122
sg19
I30
sg20
I01
sg21
g7
sg22
g7
sg23
I1920000
sg24
S'jeff.skilling@enron.com'
p287
sg26
I88
ssS'BLAKE JR. NORMAN P'
p288
(dp289
g4
g7
sg5
g7
sg6
g7
sg8
I1279
sg9
g7
sg10
g7
sg11
g7
sg12
g7
sg13
g7
sg14
g7
sg15
I1279
sg16
g7
sg17
g7
sg18
g7
sg19
g7
sg20
I00
sg21
I113784
sg22
I-113784
sg23
g7
sg24
g7
sg26
g7
ssS'SHERRICK JEFFREY B'
p290
(dp291
g4
g7
sg5
I613
sg6
g7
sg8
g7
sg9
I1426469
sg10
g7
sg11
I405999
sg12
I583
sg13
g7
sg14
I1832468
sg15
g7
sg16
g7
sg17
I25
sg18
g7
sg19
I18
sg20
I00
sg21
g7
sg22
g7
sg23
g7
sg24
S'jeffrey.sherrick@enron.com'
p292
sg26
I39
ssS'PRENTICE JAMES'
p293
(dp294
g4
g7
sg5
g7
sg6
I564348
sg8
I564348
sg9
I886231
sg10
g7
sg11
I208809
sg12
g7
sg13
g7
sg14
I1095040
sg15
g7
sg16
g7
sg17
g7
sg18
g7
sg19
g7
sg20
I00
sg21
g7
sg22
g7
sg23
g7
sg24
S'james.prentice@enron.com'
p295
sg26
g7
ssS'GRAY RODNEY'
p296
(dp297
g4
I6615
sg5
g7
sg6
I93585
sg8
I1146658
sg9
g7
sg10
g7
sg11
g7
sg12
g7
sg13
g7
sg14
g7
sg15
g7
sg16
g7
sg17
g7
sg18
I680833
sg19
g7
sg20
I00
sg21
g7
sg22
g7
sg23
I365625
sg24
g7
sg26
g7
ssS'PICKERING MARK R'
p298
(dp299
g4
I655037
sg5
I898
sg6
g7
sg8
I1386690
sg9
I28798
sg10
I300000
sg11
g7
sg12
I728
sg13
g7
sg14
I28798
sg15
I31653
sg16
I400000
sg17
I67
sg18
g7
sg19
I0
sg20
I00
sg21
g7
sg22
g7
sg23
g7
sg24
S'mark.pickering@enron.com'
p300
sg26
I7
ssS'THE TRAVEL AGENCY IN THE PARK'
p301
(dp302
g4
g7
sg5
g7
sg6
g7
sg8
I362096
sg9
g7
sg10
g7
sg11
g7
sg12
g7
sg13
g7
sg14
g7
sg15
g7
sg16
g7
sg17
g7
sg18
I362096
sg19
g7
sg20
I00
sg21
g7
sg22
g7
sg23
g7
sg24
g7
sg26
g7
ssS'NOLES JAMES L'
p303
(dp304
g4
g7
sg5
g7
sg6
I774401
sg8
I774401
sg9
g7
sg10
g7
sg11
I463261
sg12
g7
sg13
I-94556
sg14
I368705
sg15
g7
sg16
g7
sg17
g7
sg18
g7
sg19
g7
sg20
I00
sg21
g7
sg22
g7
sg23
g7
sg24
g7
sg26
g7
ssS'KEAN STEVEN J'
p305
(dp306
g4
I404338
sg5
I12754
sg6
g7
sg8
I1747522
sg9
I2022048
sg10
I1000000
sg11
I4131594
sg12
I3639
sg13
g7
sg14
I6153642
sg15
I41953
sg16
g7
sg17
I6759
sg18
I1231
sg19
I387
sg20
I00
sg21
g7
sg22
g7
sg23
I300000
sg24
S'steven.kean@enron.com'
p307
sg26
I140
ssS'FOWLER PEGGY'
p308
(dp309
g4
g7
sg5
I517
sg6
g7
sg8
g7
sg9
I1324578
sg10
g7
sg11
I560170
sg12
I10
sg13
g7
sg14
I1884748
sg15
g7
sg16
g7
sg17
I36
sg18
g7
sg19
I0
sg20
I00
sg21
g7
sg22
g7
sg23
g7
sg24
S'kulvinder.fowler@enron.com'
p310
sg26
I0
ssS'WASAFF GEORGE'
p311
(dp312
g4
I259996
sg5
I400
sg6
I831299
sg8
I1034395
sg9
I1668260
sg10
I325000
sg11
I388167
sg12
I337
sg13
g7
sg14
I2056427
sg15
g7
sg16
g7
sg17
I30
sg18
I1425
sg19
I7
sg20
I00
sg21
g7
sg22
I-583325
sg23
I200000
sg24
S'george.wasaff@enron.com'
p313
sg26
I22
ssS'WHITE JR THOMAS E'
p314
(dp315
g4
I317543
sg5
g7
sg6
g7
sg8
I1934359
sg9
I1297049
sg10
I450000
sg11
I13847074
sg12
g7
sg13
g7
sg14
I15144123
sg15
I81353
sg16
g7
sg17
g7
sg18
I1085463
sg19
g7
sg20
I00
sg21
g7
sg22
g7
sg23
g7
sg24
S'thomas.white@enron.com'
p316
sg26
g7
ssS'CHRISTODOULOU DIOMEDES'
p317
(dp318
g4
g7
sg5
g7
sg6
g7
sg8
g7
sg9
I5127155
sg10
g7
sg11
I950730
sg12
g7
sg13
g7
sg14
I6077885
sg15
g7
sg16
g7
sg17
g7
sg18
g7
sg19
g7
sg20
I00
sg21
g7
sg22
g7
sg23
g7
sg24
S'diomedes.christodoulou@enron.com'
p319
sg26
g7
ssS'ALLEN PHILLIP K'
p320
(dp321
g4
I201955
sg5
I2902
sg6
I2869717
sg8
I4484442
sg9
I1729541
sg10
I4175000
sg11
I126027
sg12
I1407
sg13
I-126027
sg14
I1729541
sg15
I13868
sg16
g7
sg17
I2195
sg18
I152
sg19
I65
sg20
I00
sg21
g7
sg22
I-3081055
sg23
I304805
sg24
S'phillip.allen@enron.com'
p322
sg26
I47
ssS'SHARP VICTORIA T'
p323
(dp324
g4
I248146
sg5
I3136
sg6
I187469
sg8
I1576511
sg9
I281073
sg10
I600000
sg11
I213063
sg12
I2477
sg13
g7
sg14
I494136
sg15
I116337
sg16
g7
sg17
I136
sg18
I2401
sg19
I6
sg20
I00
sg21
g7
sg22
g7
sg23
I422158
sg24
S'vicki.sharp@enron.com'
p325
sg26
I24
ssS'JAEDICKE ROBERT'
p326
(dp327
g4
g7
sg5
g7
sg6
g7
sg8
I83750
sg9
I431750
sg10
g7
sg11
I44093
sg12
g7
sg13
I-44093
sg14
I431750
sg15
g7
sg16
g7
sg17
g7
sg18
g7
sg19
g7
sg20
I00
sg21
I108750
sg22
I-25000
sg23
g7
sg24
g7
sg26
g7
ssS'WINOKUR JR. HERBERT S'
p328
(dp329
g4
g7
sg5
g7
sg6
g7
sg8
I84992
sg9
g7
sg10
g7
sg11
g7
sg12
g7
sg13
g7
sg14
g7
sg15
I1413
sg16
g7
sg17
g7
sg18
g7
sg19
g7
sg20
I00
sg21
I108579
sg22
I-25000
sg23
g7
sg24
g7
sg26
g7
ssS'BROWN MICHAEL'
p330
(dp331
g4
g7
sg5
I1486
sg6
g7
sg8
I49288
sg9
g7
sg10
g7
sg11
g7
sg12
I761
sg13
g7
sg14
g7
sg15
I49288
sg16
g7
sg17
I41
sg18
g7
sg19
I1
sg20
I00
sg21
g7
sg22
g7
sg23
g7
sg24
S'michael.brown@enron.com'
p332
sg26
I13
ssS'BADUM JAMES P'
p333
(dp334
g4
g7
sg5
g7
sg6
I178980
sg8
I182466
sg9
I257817
sg10
g7
sg11
g7
sg12
g7
sg13
g7
sg14
I257817
sg15
I3486
sg16
g7
sg17
g7
sg18
g7
sg19
g7
sg20
I00
sg21
g7
sg22
g7
sg23
g7
sg24
g7
sg26
g7
ssS'HUGHES JAMES A'
p335
(dp336
g4
g7
sg5
I719
sg6
g7
sg8
g7
sg9
I754966
sg10
g7
sg11
I363428
sg12
I589
sg13
g7
sg14
I1118394
sg15
g7
sg16
g7
sg17
I34
sg18
g7
sg19
I5
sg20
I00
sg21
g7
sg22
g7
sg23
g7
sg24
S'james.hughes@enron.com'
p337
sg26
I35
ssS'REYNOLDS LAWRENCE'
p338
(dp339
g4
I76399
sg5
g7
sg6
I51365
sg8
I394475
sg9
I4160672
sg10
I100000
sg11
I201483
sg12
g7
sg13
I-140264
sg14
I4221891
sg15
I8409
sg16
g7
sg17
g7
sg18
I202052
sg19
g7
sg20
I00
sg21
g7
sg22
I-200000
sg23
I156250
sg24
g7
sg26
g7
ssS'DIMICHELE RICHARD G'
p340
(dp341
g4
I262788
sg5
g7
sg6
g7
sg8
I2368151
sg9
I8191755
sg10
I1000000
sg11
I126027
sg12
g7
sg13
g7
sg14
I8317782
sg15
I35812
sg16
g7
sg17
g7
sg18
I374689
sg19
g7
sg20
I00
sg21
g7
sg22
g7
sg23
I694862
sg24
S'richard.dimichele@enron.com'
p342
sg26
g7
ssS'BHATNAGAR SANJAY'
p343
(dp344
g4
g7
sg5
I523
sg6
g7
sg8
I15456290
sg9
I2604490
sg10
g7
sg11
I-2604490
sg12
I463
sg13
I15456290
sS'total_stock_value'
p345
S'NaN'
p346
sg15
g7
sg16
g7
sg17
I29
sg18
I137864
sg19
I1
sg20
I00
sg21
I137864
sg22
g7
sg23
g7
sg24
S'sanjay.bhatnagar@enron.com'
p347
sg26
I0
ssS'CARTER REBECCA C'
p348
(dp349
g4
I261809
sg5
I312
sg6
g7
sg8
I477557
sg9
g7
sg10
I300000
sg11
I307301
sg12
I196
sg13
I-307301
sg14
g7
sg15
g7
sg16
g7
sg17
I15
sg18
I540
sg19
I7
sg20
I00
sg21
g7
sg22
I-159792
sg23
I75000
sg24
S'rebecca.carter@enron.com'
p350
sg26
I29
ssS'BUCHANAN HAROLD G'
p351
(dp352
g4
I248017
sg5
I1088
sg6
g7
sg8
I1054637
sg9
I825464
sg10
I500000
sg11
I189041
sg12
I23
sg13
g7
sg14
I1014505
sg15
I600
sg16
g7
sg17
I125
sg18
I1215
sg19
I0
sg20
I00
sg21
g7
sg22
g7
sg23
I304805
sg24
S'john.buchanan@enron.com'
p353
sg26
I0
ssS'YEAP SOON'
p354
(dp355
g4
g7
sg5
g7
sg6
g7
sg8
I55097
sg9
I192758
sg10
g7
sg11
g7
sg12
g7
sg13
g7
sg14
I192758
sg15
I55097
sg16
g7
sg17
g7
sg18
g7
sg19
g7
sg20
I00
sg21
g7
sg22
g7
sg23
g7
sg24
g7
sg26
g7
ssS'MURRAY JULIA H'
p356
(dp357
g4
I229284
sg5
I2192
sg6
g7
sg8
I812194
sg9
I400478
sg10
I400000
sg11
I196983
sg12
I395
sg13
g7
sg14
I597461
sg15
I57580
sg16
g7
sg17
I45
sg18
I330
sg19
I2
sg20
I00
sg21
g7
sg22
g7
sg23
I125000
sg24
S'julia.murray@enron.com'
p358
sg26
I11
ssS'GARLAND C KEVIN'
p359
(dp360
g4
I231946
sg5
I209
sg6
g7
sg8
I1566469
sg9
I636246
sg10
I850000
sg11
I259907
sg12
I178
sg13
g7
sg14
I896153
sg15
I48405
sg16
g7
sg17
I44
sg18
I60814
sg19
I27
sg20
I00
sg21
g7
sg22
g7
sg23
I375304
sg24
S'kevin.garland@enron.com'
p361
sg26
I10
ssS'DODSON KEITH'
p362
(dp363
g4
I221003
sg5
I176
sg6
g7
sg8
I319941
sg9
g7
sg10
I70000
sg11
g7
sg12
I114
sg13
g7
sg14
g7
sg15
I28164
sg16
g7
sg17
I14
sg18
I774
sg19
I3
sg20
I00
sg21
g7
sg22
g7
sg23
g7
sg24
S'keith.dodson@enron.com'
p364
sg26
I10
ssS'YEAGER F SCOTT'
p365
(dp366
g4
I158403
sg5
g7
sg6
g7
sg8
I360300
sg9
I8308552
sg10
g7
sg11
I3576206
sg12
g7
sg13
g7
sg14
I11884758
sg15
I53947
sg16
g7
sg17
g7
sg18
I147950
sg19
g7
sg20
I01
sg21
g7
sg22
g7
sg23
g7
sg24
S'scott.yeager@enron.com'
p367
sg26
g7
ssS'HIRKO JOSEPH'
p368
(dp369
g4
g7
sg5
g7
sg6
I10259
sg8
I91093
sg9
I30766064
sg10
g7
sg11
g7
sg12
g7
sg13
g7
sg14
I30766064
sg15
I77978
sg16
g7
sg17
g7
sg18
I2856
sg19
g7
sg20
I01
sg21
g7
sg22
g7
sg23
g7
sg24
S'joe.hirko@enron.com'
p370
sg26
g7
ssS'DIETRICH JANET R'
p371
(dp372
g4
I250100
sg5
I2572
sg6
g7
sg8
I1410464
sg9
I1550019
sg10
I600000
sg11
I315068
sg12
I1902
sg13
g7
sg14
I1865087
sg15
I3475
sg16
g7
sg17
I63
sg18
I473
sg19
I14
sg20
I00
sg21
g7
sg22
g7
sg23
I556416
sg24
S'janet.dietrich@enron.com'
p373
sg26
I305
ssS'DERRICK JR. JAMES V'
p374
(dp375
g4
I492375
sg5
I2181
sg6
g7
sg8
I550981
sg9
I8831913
sg10
I800000
sg11
I1787380
sg12
I1401
sg13
I-1787380
sg14
I8831913
sg15
I51124
sg16
g7
sg17
I909
sg18
I7482
sg19
I20
sg20
I00
sg21
g7
sg22
I-1284000
sg23
I484000
sg24
S'james.derrick@enron.com'
p376
sg26
I64
ssS'FREVERT MARK A'
p377
(dp378
g4
I1060932
sg5
I3275
sg6
I6426990
sg8
I17252530
sg9
I10433518
sg10
I2000000
sg11
I4188667
sg12
I2979
sg13
g7
sg14
I14622185
sg15
I86987
sg16
I2000000
sg17
I21
sg18
I7427621
sg19
I6
sg20
I00
sg21
g7
sg22
I-3367011
sg23
I1617011
sg24
S'mark.frevert@enron.com'
p379
sg26
I242
ssS'PAI LOU L'
p380
(dp381
g4
I261879
sg5
g7
sg6
g7
sg8
I3123383
sg9
I15364167
sg10
I1000000
sg11
I8453763
sg12
g7
sg13
g7
sg14
I23817930
sg15
I32047
sg16
g7
sg17
g7
sg18
I1829457
sg19
g7
sg20
I00
sg21
g7
sg22
g7
sg23
g7
sg24
S'lou.pai@enron.com'
p382
sg26
g7
ssS'BAY FRANKLIN R'
p383
(dp384
g4
I239671
sg5
g7
sg6
I260455
sg8
I827696
sg9
g7
sg10
I400000
sg11
I145796
sg12
g7
sg13
I-82782
sg14
I63014
sg15
I129142
sg16
g7
sg17
g7
sg18
I69
sg19
g7
sg20
I00
sg21
g7
sg22
I-201641
sg23
g7
sg24
S'frank.bay@enron.com'
p385
sg26
g7
ssS'HAYSLETT RODERICK J'
p386
(dp387
g4
g7
sg5
I2649
sg6
g7
sg8
g7
sg9
g7
sg10
g7
sg11
I346663
sg12
I571
sg13
g7
sg14
I346663
sg15
g7
sg16
g7
sg17
I1061
sg18
g7
sg19
I38
sg20
I00
sg21
g7
sg22
g7
sg23
g7
sg24
S'rod.hayslett@enron.com'
p388
sg26
I35
ssS'FUGH JOHN L'
p389
(dp390
g4
g7
sg5
g7
sg6
I50591
sg8
I50591
sg9
I176378
sg10
g7
sg11
g7
sg12
g7
sg13
g7
sg14
I176378
sg15
g7
sg16
g7
sg17
g7
sg18
g7
sg19
g7
sg20
I00
sg21
g7
sg22
g7
sg23
g7
sg24
g7
sg26
g7
ssS'FALLON JAMES B'
p391
(dp392
g4
I304588
sg5
I1755
sg6
g7
sg8
I3676340
sg9
I940257
sg10
I2500000
sg11
I1392142
sg12
I1604
sg13
g7
sg14
I2332399
sg15
I95924
sg16
g7
sg17
I75
sg18
I401481
sg19
I37
sg20
I00
sg21
g7
sg22
g7
sg23
I374347
sg24
S'jim.fallon@enron.com'
p393
sg26
I42
ssS'KOENIG MARK E'
p394
(dp395
g4
I309946
sg5
I2374
sg6
g7
sg8
I1587421
sg9
I671737
sg10
I700000
sg11
I1248318
sg12
I2271
sg13
g7
sg14
I1920055
sg15
I127017
sg16
g7
sg17
I61
sg18
I150458
sg19
I15
sg20
I01
sg21
g7
sg22
g7
sg23
I300000
sg24
S'mark.koenig@enron.com'
p396
sg26
I53
ssS'SAVAGE FRANK'
p397
(dp398
g4
g7
sg5
g7
sg6
g7
sg8
I3750
sg9
g7
sg10
g7
sg11
g7
sg12
g7
sg13
g7
sg14
g7
sg15
g7
sg16
g7
sg17
g7
sg18
g7
sg19
g7
sg20
I00
sg21
I125034
sg22
I-121284
sg23
g7
sg24
g7
sg26
g7
ssS'IZZO LAWRENCE L'
p399
(dp400
g4
I85274
sg5
I496
sg6
g7
sg8
I1979596
sg9
I2165172
sg10
g7
sg11
I3654808
sg12
I437
sg13
g7
sg14
I5819980
sg15
I28093
sg16
g7
sg17
I19
sg18
I1553729
sg19
I5
sg20
I00
sg21
g7
sg22
g7
sg23
I312500
sg24
S'larry.izzo@enron.com'
p401
sg26
I28
ssS'TILNEY ELIZABETH A'
p402
(dp403
g4
I247338
sg5
I460
sg6
g7
sg8
I399393
sg9
I591250
sg10
I300000
sg11
I576792
sg12
I379
sg13
g7
sg14
I1168042
sg15
g7
sg16
g7
sg17
I19
sg18
I152055
sg19
I11
sg20
I00
sg21
g7
sg22
I-575000
sg23
I275000
sg24
S'elizabeth.tilney@enron.com'
p404
sg26
I10
ssS'MARTIN AMANDA K'
p405
(dp406
g4
I349487
sg5
I1522
sg6
I85430
sg8
I8407016
sg9
I2070306
sg10
g7
sg11
g7
sg12
I477
sg13
g7
sg14
I2070306
sg15
I8211
sg16
g7
sg17
I230
sg18
I2818454
sg19
I0
sg20
I00
sg21
g7
sg22
g7
sg23
I5145434
sg24
S'a..martin@enron.com'
p407
sg26
I8
ssS'BUY RICHARD B'
p408
(dp409
g4
I330546
sg5
I3523
sg6
I649584
sg8
I2355702
sg9
I2542813
sg10
I900000
sg11
I901657
sg12
I2333
sg13
g7
sg14
I3444470
sg15
g7
sg16
g7
sg17
I1053
sg18
I400572
sg19
I71
sg20
I00
sg21
g7
sg22
I-694862
sg23
I769862
sg24
S'rick.buy@enron.com'
p410
sg26
I156
ssS'GRAMM WENDY L'
p411
(dp412
g4
g7
sg5
g7
sg6
g7
sg8
I119292
sg9
g7
sg10
g7
sg11
g7
sg12
g7
sg13
g7
sg14
g7
sg15
g7
sg16
g7
sg17
g7
sg18
g7
sg19
g7
sg20
I00
sg21
I119292
sg22
g7
sg23
g7
sg24
g7
sg26
g7
ssS'CAUSEY RICHARD A'
p413
(dp414
g4
I415189
sg5
I1892
sg6
g7
sg8
I1868758
sg9
g7
sg10
I1000000
sg11
I2502063
sg12
I1585
sg13
g7
sg14
I2502063
sg15
I30674
sg16
g7
sg17
I49
sg18
I307895
sg19
I12
sg20
I01
sg21
g7
sg22
I-235000
sg23
I350000
sg24
S'richard.causey@enron.com'
p415
sg26
I58
ssS'TAYLOR MITCHELL S'
p416
(dp417
g4
I265214
sg5
I533
sg6
I227449
sg8
I1092663
sg9
I3181250
sg10
I600000
sg11
I563798
sg12
I300
sg13
g7
sg14
I3745048
sg15
g7
sg16
g7
sg17
I29
sg18
g7
sg19
I0
sg20
I00
sg21
g7
sg22
g7
sg23
g7
sg24
S'mitchell.taylor@enron.com'
p418
sg26
I0
ssS'DONAHUE JR JEFFREY M'
p419
(dp420
g4
I278601
sg5
I865
sg6
g7
sg8
I875760
sg9
I765920
sg10
I800000
sg11
I315068
sg12
I772
sg13
g7
sg14
I1080988
sg15
I96268
sg16
g7
sg17
I22
sg18
I891
sg19
I11
sg20
I00
sg21
g7
sg22
I-300000
sg23
g7
sg24
S'jeff.donahue@enron.com'
p421
sg26
I188
ssS'GLISAN JR BEN F'
p422
(dp423
g4
I274975
sg5
I873
sg6
g7
sg8
I1272284
sg9
I384728
sg10
I600000
sg11
I393818
sg12
I874
sg13
g7
sg14
I778546
sg15
I125978
sg16
g7
sg17
I16
sg18
I200308
sg19
I6
sg20
I01
sg21
g7
sg22
g7
sg23
I71023
sg24
S'ben.glisan@enron.com'
p424
sg26
I52
ss.