(lp1
(dp2
S'to_messages'
p3
I807
sS'deferral_payments'
p4
S'NaN'
p5
sS'expenses'
p6
I94299
sS'poi'
p7
I00
sS'deferred_income'
p8
g5
sS'email_address'
p9
S'mark.metts@enron.com'
p10
sS'long_term_incentive'
p11
g5
sS'restricted_stock_deferred'
p12
g5
sS'shared_receipt_with_poi'
p13
I702
sS'loan_advances'
p14
g5
sS'from_messages'
p15
I29
sS'other'
p16
I1740
sS'director_fees'
p17
g5
sS'bonus'
p18
I600000
sS'total_stock_value'
p19
I585062
sS'from_poi_to_this_person'
p20
I38
sS'from_this_person_to_poi'
p21
I1
sS'restricted_stock'
p22
I585062
sS'salary'
p23
I365788
sS'name'
p24
S'METTS MARK'
p25
sS'total_payments'
p26
I1061827
sS'exercised_stock_options'
p27
g5
sa(dp28
g3
g5
sg4
g5
sg6
I78552
sg7
I00
sg8
I-400729
sg9
S'steven.elliott@enron.com'
p29
sg11
g5
sg12
g5
sg13
g5
sg14
g5
sg15
g5
sg16
I12961
sg17
g5
sg18
I350000
sg19
I6678735
sg20
g5
sg21
g5
sg22
I1788391
sg23
I170941
sg24
S'ELLIOTT STEVEN'
p30
sg26
I211725
sg27
I4890344
sa(dp31
g3
I764
sg4
g5
sg6
g5
sg7
I00
sg8
g5
sg9
S'bill.cordes@enron.com'
p32
sg11
g5
sg12
g5
sg13
I58
sg14
g5
sg15
I12
sg16
g5
sg17
g5
sg18
g5
sg19
I1038185
sg20
I10
sg21
I0
sg22
I386335
sg23
g5
sg24
S'CORDES WILLIAM R'
p33
sg26
g5
sg27
I651850
sa(dp34
g3
I1045
sg4
g5
sg6
I34039
sg7
I01
sg8
I-3117011
sg9
S'kevin.hannon@enron.com'
p35
sg11
I1617011
sg12
g5
sg13
I1035
sg14
g5
sg15
I32
sg16
I11350
sg17
g5
sg18
I1500000
sg19
I6391065
sg20
I32
sg21
I21
sg22
I853064
sg23
I243293
sg24
S'HANNON KEVIN P'
p36
sg26
I288682
sg27
I5538001
sa(dp37
g3
g5
sg4
g5
sg6
I35018
sg7
I00
sg8
g5
sg9
S'kristina.mordaunt@enron.com'
p38
sg11
g5
sg12
g5
sg13
g5
sg14
g5
sg15
g5
sg16
I1411
sg17
g5
sg18
I325000
sg19
I208510
sg20
g5
sg21
g5
sg22
I208510
sg23
I267093
sg24
S'MORDAUNT KRISTINA M'
p39
sg26
I628522
sg27
g5
sa(dp40
g3
I232
sg4
I1848227
sg6
g5
sg7
I00
sg8
g5
sg9
S'rockford.meyer@enron.com'
p41
sg11
g5
sg12
g5
sg13
I22
sg14
g5
sg15
I28
sg16
g5
sg17
g5
sg18
g5
sg19
I955873
sg20
I0
sg21
I0
sg22
I462384
sg23
g5
sg24
S'MEYER ROCKFORD G'
p42
sg26
I1848227
sg27
I493489
sa(dp43
g3
I2355
sg4
g5
sg6
I137108
sg7
I00
sg8
g5
sg9
S'jeffrey.mcmahon@enron.com'
p44
sg11
I694862
sg12
g5
sg13
I2228
sg14
g5
sg15
I48
sg16
I297353
sg17
g5
sg18
I2600000
sg19
I1662855
sg20
I58
sg21
I26
sg22
I558801
sg23
I370448
sg24
S'MCMAHON JEFFREY'
p45
sg26
I4099771
sg27
I1104054
sa(dp46
g3
I2350
sg4
I3131860
sg6
g5
sg7
I00
sg8
g5
sg9
S'stanley.horton@enron.com'
p47
sg11
g5
sg12
g5
sg13
I1074
sg14
g5
sg15
I1073
sg16
g5
sg17
g5
sg18
g5
sg19
I7256648
sg20
I44
sg21
I15
sg22
I2046079
sg23
g5
sg24
S'HORTON STANLEY C'
p48
sg26
I3131860
sg27
I5210569
sa(dp49
g3
I1238
sg4
I1130036
sg6
I43057
sg7
I00
sg8
I-33333
sg9
S'greg.piper@enron.com'
p50
sg11
g5
sg12
I-409554
sg13
I742
sg14
g5
sg15
I222
sg16
I778
sg17
g5
sg18
I400000
sg19
I880290
sg20
I61
sg21
I48
sg22
I409554
sg23
I197091
sg24
S'PIPER GREGORY F'
p51
sg26
I1737629
sg27
I880290
sa(dp52
g3
I128
sg4
I2964506
sg6
I4994
sg7
I00
sg8
g5
sg9
S'gene.humphrey@enron.com'
p53
sg11
g5
sg12
g5
sg13
I119
sg14
g5
sg15
I17
sg16
g5
sg17
g5
sg18
g5
sg19
I2282768
sg20
I10
sg21
I17
sg22
g5
sg23
I130724
sg24
S'HUMPHREY GENE E'
p54
sg26
I3100224
sg27
I2282768
sa(dp55
g3
I111
sg4
g5
sg6
I53122
sg7
I00
sg8
g5
sg9
S'adam.umanoff@enron.com'
p56
sg11
g5
sg12
g5
sg13
I41
sg14
g5
sg15
I18
sg16
g5
sg17
g5
sg18
I788750
sg19
g5
sg20
I12
sg21
I0
sg22
g5
sg23
I288589
sg24
S'UMANOFF ADAM S'
p57
sg26
I1130461
sg27
g5
sa(dp58
g3
I2475
sg4
g5
sg6
I84208
sg7
I00
sg8
g5
sg9
S'jeremy.blachman@enron.com'
p59
sg11
I831809
sg12
g5
sg13
I2326
sg14
g5
sg15
I14
sg16
I272
sg17
g5
sg18
I850000
sg19
I954354
sg20
I25
sg21
I2
sg22
I189041
sg23
I248546
sg24
S'BLACHMAN JEREMY M'
p60
sg26
I2014835
sg27
I765313
sa(dp61
g3
I2647
sg4
g5
sg6
g5
sg7
I00
sg8
g5
sg9
S'marty.sunde@enron.com'
p62
sg11
I476451
sg12
g5
sg13
I2565
sg14
g5
sg15
I38
sg16
I111122
sg17
g5
sg18
I700000
sg19
I698920
sg20
I37
sg21
I13
sg22
I698920
sg23
I257486
sg24
S'SUNDE MARTIN'
p63
sg26
I1545059
sg27
g5
sa(dp64
g3
I169
sg4
I504610
sg6
g5
sg7
I00
sg8
g5
sg9
S'dana.gibbs@enron.com'
p65
sg11
I461912
sg12
g5
sg13
I23
sg14
g5
sg15
I12
sg16
g5
sg17
g5
sg18
g5
sg19
I2218275
sg20
I0
sg21
I0
sg22
g5
sg23
g5
sg24
S'GIBBS DANA R'
p66
sg26
I966522
sg27
I2218275
sa(dp67
g3
I1758
sg4
I27610
sg6
I16514
sg7
I01
sg8
I-144062
sg9
S'wes.colwell@enron.com'
p68
sg11
g5
sg12
g5
sg13
I1132
sg14
g5
sg15
I40
sg16
I101740
sg17
g5
sg18
I1200000
sg19
I698242
sg20
I240
sg21
I11
sg22
I698242
sg23
I288542
sg24
S'COLWELL WESLEY'
p69
sg26
I1490344
sg27
g5
sa(dp70
g3
I136
sg4
I842924
sg6
g5
sg7
I00
sg8
I-719000
sg9
S's..muller@enron.com'
p71
sg11
I1725545
sg12
g5
sg13
I114
sg14
g5
sg15
I16
sg16
I947
sg17
g5
sg18
I1100000
sg19
I1416848
sg20
I12
sg21
I0
sg22
I360528
sg23
I251654
sg24
S'MULLER MARK S'
p72
sg26
I3202070
sg27
I1056320
sa(dp73
g3
I258
sg4
g5
sg6
I10181
sg7
I00
sg8
g5
sg9
S'charlene.jackson@enron.com'
p74
sg11
g5
sg12
g5
sg13
I117
sg14
g5
sg15
I56
sg16
I2435
sg17
g5
sg18
I250000
sg19
I725735
sg20
I25
sg21
I19
sg22
I540672
sg23
I288558
sg24
S'JACKSON CHARLENE R'
p75
sg26
I551174
sg27
I185063
sa(dp76
g3
g5
sg4
g5
sg6
I51870
sg7
I00
sg8
I-10800
sg9
S'dick.westfahl@enron.com'
p77
sg11
I256191
sg12
g5
sg13
g5
sg14
g5
sg15
g5
sg16
I401130
sg17
g5
sg18
g5
sg19
I384930
sg20
g5
sg21
g5
sg22
I384930
sg23
I63744
sg24
S'WESTFAHL RICHARD K'
p78
sg26
I762135
sg27
g5
sa(dp79
g3
I671
sg4
g5
sg6
I50936
sg7
I00
sg8
g5
sg9
S'rob.walls@enron.com'
p80
sg11
I540751
sg12
g5
sg13
I215
sg14
g5
sg15
I146
sg16
I2
sg17
g5
sg18
I850000
sg19
I5898997
sg20
I17
sg21
I0
sg22
I1552453
sg23
I357091
sg24
S'WALLS JR ROBERT H'
p81
sg26
I1798780
sg27
I4346544
sa(dp82
g3
I8305
sg4
g5
sg6
I5774
sg7
I00
sg8
g5
sg9
S'louise.kitchen@enron.com'
p83
sg11
g5
sg12
g5
sg13
I3669
sg14
g5
sg15
I1728
sg16
I93925
sg17
g5
sg18
I3100000
sg19
I547143
sg20
I251
sg21
I194
sg22
I466101
sg23
I271442
sg24
S'KITCHEN LOUISE'
p84
sg26
I3471141
sg27
I81042
sa(dp85
g3
I3221
sg4
g5
sg6
I178979
sg7
I00
sg8
g5
sg9
S'jeffrey.shankman@enron.com'
p86
sg11
I554422
sg12
g5
sg13
I1730
sg14
g5
sg15
I2681
sg16
I1191
sg17
g5
sg18
I2000000
sg19
I2072035
sg20
I94
sg21
I83
sg22
I630137
sg23
I304110
sg24
S'SHANKMAN JEFFREY A'
p87
sg26
I3038702
sg27
I1441898
sa(dp88
g3
g5
sg4
g5
sg6
g5
sg7
I00
sg8
g5
sg9
S'john.wodraska@enron.com'
p89
sg11
g5
sg12
g5
sg13
g5
sg14
g5
sg15
g5
sg16
I189583
sg17
g5
sg18
g5
sg19
g5
sg20
g5
sg21
g5
sg22
g5
sg23
g5
sg24
S'WODRASKA JOHN'
p90
sg26
I189583
sg27
g5
sa(dp91
g3
I383
sg4
g5
sg6
I59175
sg7
I00
sg8
I-485813
sg9
S'rick.bergsieker@enron.com'
p92
sg11
I180250
sg12
g5
sg13
I233
sg14
g5
sg15
I59
sg16
I427316
sg17
g5
sg18
I250000
sg19
I659249
sg20
I4
sg21
I0
sg22
I659249
sg23
I187922
sg24
S'BERGSIEKER RICHARD P'
p93
sg26
I618850
sg27
g5
sa(dp94
g3
I1607
sg4
g5
sg6
I38559
sg7
I00
sg8
g5
sg9
S'philippe.bibi@enron.com'
p95
sg11
I369721
sg12
g5
sg13
I1336
sg14
g5
sg15
I40
sg16
I425688
sg17
g5
sg18
I1000000
sg19
I1843816
sg20
I23
sg21
I8
sg22
I378082
sg23
I213625
sg24
S'BIBI PHILIPPE A'
p96
sg26
I2047593
sg27
I1465734
sa(dp97
g3
I1328
sg4
I214678
sg6
I33271
sg7
I01
sg8
I-100000
sg9
S'paula.rieker@enron.com'
p98
sg11
g5
sg12
g5
sg13
I1258
sg14
g5
sg15
I82
sg16
I1950
sg17
g5
sg18
I700000
sg19
I1918887
sg20
I35
sg21
I48
sg22
I283649
sg23
I249201
sg24
S'RIEKER PAULA H'
p99
sg26
I1099100
sg27
I1635238
sa(dp100
g3
I7315
sg4
g5
sg6
I37172
sg7
I00
sg8
g5
sg9
S'sally.beck@enron.com'
p101
sg11
g5
sg12
g5
sg13
I2639
sg14
g5
sg15
I4343
sg16
I566
sg17
g5
sg18
I700000
sg19
I126027
sg20
I144
sg21
I386
sg22
I126027
sg23
I231330
sg24
S'BECK SALLY W'
p102
sg26
I969068
sg27
g5
sa(dp103
g3
I573
sg4
g5
sg6
I475
sg7
I00
sg8
g5
sg9
S'david.haug@enron.com'
p104
sg11
g5
sg12
g5
sg13
I471
sg14
g5
sg15
I19
sg16
g5
sg17
g5
sg18
g5
sg19
I2217299
sg20
I4
sg21
I7
sg22
I2217299
sg23
g5
sg24
S'HAUG DAVID L'
p105
sg26
I475
sg27
g5
sa(dp106
g3
g5
sg4
g5
sg6
I21530
sg7
I00
sg8
g5
sg9
S'john.echols@enron.com'
p107
sg11
I2234774
sg12
g5
sg13
g5
sg14
g5
sg15
g5
sg16
I53775
sg17
g5
sg18
I200000
sg19
I1008941
sg20
g5
sg21
g5
sg22
I407503
sg23
I182245
sg24
S'ECHOLS JOHN B'
p108
sg26
I2692324
sg27
I601438
sa(dp109
g3
I1320
sg4
g5
sg6
I98849
sg7
I00
sg8
g5
sg9
S'gary.hickerson@enron.com'
p110
sg11
I69223
sg12
g5
sg13
I900
sg14
g5
sg15
I27
sg16
I1936
sg17
g5
sg18
I1700000
sg19
I441096
sg20
I40
sg21
I1
sg22
I441096
sg23
I211788
sg24
S'HICKERSON GARY J'
p111
sg26
I2081796
sg27
g5
sa(dp112
g3
I952
sg4
g5
sg6
g5
sg7
I00
sg8
g5
sg9
S'richard.lewis@enron.com'
p113
sg11
g5
sg12
g5
sg13
I739
sg14
g5
sg15
I26
sg16
g5
sg17
g5
sg18
g5
sg19
I850477
sg20
I10
sg21
I0
sg22
g5
sg23
g5
sg24
S'LEWIS RICHARD'
p114
sg26
g5
sg27
I850477
sa(dp115
g3
I504
sg4
I7961
sg6
g5
sg7
I00
sg8
g5
sg9
S'robert.hayes@enron.com'
p116
sg11
g5
sg12
g5
sg13
I50
sg14
g5
sg15
I12
sg16
g5
sg17
g5
sg18
g5
sg19
I151418
sg20
I16
sg21
I0
sg22
I151418
sg23
g5
sg24
S'HAYES ROBERT E'
p117
sg26
I7961
sg27
g5
sa(dp118
g3
I1433
sg4
g5
sg6
g5
sg7
I00
sg8
g5
sg9
S'danny.mccarty@enron.com'
p119
sg11
g5
sg12
g5
sg13
I508
sg14
g5
sg15
I215
sg16
g5
sg17
g5
sg18
g5
sg19
I758931
sg20
I25
sg21
I2
sg22
I94556
sg23
g5
sg24
S'MCCARTY DANNY J'
p120
sg26
g5
sg27
I664375
sa(dp121
g3
g5
sg4
g5
sg6
I118134
sg7
I01
sg8
g5
sg9
S'michael.kopper@enron.com'
p122
sg11
I602671
sg12
g5
sg13
g5
sg14
g5
sg15
g5
sg16
I907502
sg17
g5
sg18
I800000
sg19
I985032
sg20
g5
sg21
g5
sg22
I985032
sg23
I224305
sg24
S'KOPPER MICHAEL J'
p123
sg26
I2652612
sg27
g5
sa(dp124
g3
I2822
sg4
g5
sg6
g5
sg7
I00
sg8
g5
sg9
S'dan.leff@enron.com'
p125
sg11
I1387399
sg12
g5
sg13
I2672
sg14
g5
sg15
I63
sg16
I3083
sg17
g5
sg18
I1000000
sg19
I360528
sg20
I67
sg21
I14
sg22
I360528
sg23
I273746
sg24
S'LEFF DANIEL P'
p126
sg26
I2664228
sg27
g5
sa(dp127
g3
I7259
sg4
g5
sg6
I49537
sg7
I00
sg8
g5
sg9
S'john.lavorato@enron.com'
p128
sg11
I2035380
sg12
g5
sg13
I3962
sg14
g5
sg15
I2585
sg16
I1552
sg17
g5
sg18
I8000000
sg19
I5167144
sg20
I528
sg21
I411
sg22
I1008149
sg23
I339288
sg24
S'LAVORATO JOHN J'
p129
sg26
I10425757
sg27
I4158995
sa(dp130
g3
g5
sg4
g5
sg6
I11892
sg7
I00
sg8
g5
sg9
S'david.berberian@enron.com'
p131
sg11
g5
sg12
g5
sg13
g5
sg14
g5
sg15
g5
sg16
g5
sg17
g5
sg18
g5
sg19
I2493616
sg20
g5
sg21
g5
sg22
I869220
sg23
I216582
sg24
S'BERBERIAN DAVID'
p132
sg26
I228474
sg27
I1624396
sa(dp133
g3
g5
sg4
I875307
sg6
I52255
sg7
I00
sg8
I-775241
sg9
S'timothy.detmering@enron.com'
p134
sg11
I415657
sg12
I-315068
sg13
g5
sg14
g5
sg15
g5
sg16
I1105
sg17
g5
sg18
I425000
sg19
I2027865
sg20
g5
sg21
g5
sg22
I315068
sg23
I210500
sg24
S'DETMERING TIMOTHY J'
p135
sg26
I1204583
sg27
I2027865
sa(dp136
g3
I653
sg4
g5
sg6
g5
sg7
I00
sg8
I-17500
sg9
S'ken.powers@enron.com'
p137
sg11
g5
sg12
g5
sg13
I12
sg14
g5
sg15
I26
sg16
g5
sg17
I17500
sg18
g5
sg19
g5
sg20
I0
sg21
I0
sg22
g5
sg23
g5
sg24
S'POWERS WILLIAM'
p138
sg26
g5
sg27
g5
sa(dp139
g3
g5
sg4
g5
sg6
g5
sg7
I00
sg8
g5
sg9
S'joe.gold@enron.com'
p140
sg11
I304805
sg12
g5
sg13
g5
sg14
g5
sg15
g5
sg16
I819288
sg17
g5
sg18
I750000
sg19
I877611
sg20
g5
sg21
g5
sg22
I441096
sg23
I272880
sg24
S'GOLD JOSEPH'
p141
sg26
I2146973
sg27
I436515
sa(dp142
g3
I566
sg4
g5
sg6
I56301
sg7
I00
sg8
I-5104
sg9
S'james.bannantine@enron.com'
p143
sg11
g5
sg12
I-560222
sg13
I465
sg14
g5
sg15
I29
sg16
I864523
sg17
g5
sg18
g5
sg19
I5243487
sg20
I39
sg21
I0
sg22
I1757552
sg23
I477
sg24
S'BANNANTINE JAMES M'
p144
sg26
I916197
sg27
I4046157
sa(dp145
g3
I15149
sg4
g5
sg6
I137767
sg7
I00
sg8
g5
sg9
S'richard.shapiro@enron.com'
p146
sg11
g5
sg12
g5
sg13
I4527
sg14
g5
sg15
I1215
sg16
I705
sg17
g5
sg18
I650000
sg19
I987001
sg20
I74
sg21
I65
sg22
I379164
sg23
I269076
sg24
S'SHAPIRO RICHARD S'
p147
sg26
I1057548
sg27
I607837
sa(dp148
g3
I3187
sg4
g5
sg6
g5
sg7
I00
sg8
g5
sg9
S'john.sherriff@enron.com'
p149
sg11
I554422
sg12
g5
sg13
I2103
sg14
g5
sg15
I92
sg16
I1852186
sg17
g5
sg18
I1500000
sg19
I3128982
sg20
I28
sg21
I23
sg22
I1293424
sg23
I428780
sg24
S'SHERRIFF JOHN R'
p150
sg26
I4335388
sg27
I1835558
sa(dp151
g3
I225
sg4
g5
sg6
I22884
sg7
I01
sg8
I-4167
sg9
S'rex.shelby@enron.com'
p152
sg11
g5
sg12
g5
sg13
I91
sg14
g5
sg15
I39
sg16
I1573324
sg17
g5
sg18
I200000
sg19
I2493616
sg20
I13
sg21
I14
sg22
I869220
sg23
I211844
sg24
S'SHELBY REX'
p153
sg26
I2003885
sg27
I1624396
sa(dp154
g3
I714
sg4
g5
sg6
I41626
sg7
I00
sg8
g5
sg9
S'joseph.deffner@enron.com'
p155
sg11
I335349
sg12
g5
sg13
I552
sg14
g5
sg15
I74
sg16
I25553
sg17
g5
sg18
I600000
sg19
I159211
sg20
I115
sg21
I4
sg22
I141833
sg23
I206121
sg24
S'DEFFNER JOSEPH M'
p156
sg26
I1208649
sg27
I17378
sa(dp157
g3
g5
sg4
g5
sg6
I116335
sg7
I00
sg8
I-51042
sg9
S'joe.kishkill@enron.com'
p158
sg11
g5
sg12
g5
sg13
g5
sg14
g5
sg15
g5
sg16
I465357
sg17
g5
sg18
g5
sg19
I1034346
sg20
g5
sg21
g5
sg22
I1034346
sg23
I174246
sg24
S'KISHKILL JOSEPH G'
p159
sg26
I704896
sg27
g5
sa(dp160
g3
I6019
sg4
g5
sg6
I57838
sg7
I00
sg8
g5
sg9
S'greg.whalley@enron.com'
p161
sg11
I808346
sg12
g5
sg13
I3920
sg14
g5
sg15
I556
sg16
I301026
sg17
g5
sg18
I3000000
sg19
I6079137
sg20
I186
sg21
I24
sg22
I2796177
sg23
I510364
sg24
S'WHALLEY LAWRENCE G'
p162
sg26
I4677574
sg27
I3282960
sa(dp163
g3
I3329
sg4
g5
sg6
I81364
sg7
I00
sg8
g5
sg9
S'mike.mcconnell@enron.com'
p164
sg11
I554422
sg12
g5
sg13
I2189
sg14
g5
sg15
I2742
sg16
I540
sg17
g5
sg18
I1100000
sg19
I3101279
sg20
I92
sg21
I194
sg22
I1478269
sg23
I365038
sg24
S'MCCONNELL MICHAEL S'
p165
sg26
I2101364
sg27
I1623010
sa(dp166
g3
I58
sg4
g5
sg6
g5
sg7
I00
sg8
g5
sg9
S'jim.piro@enron.com'
p167
sg11
g5
sg12
g5
sg13
I3
sg14
g5
sg15
I16
sg16
g5
sg17
g5
sg18
g5
sg19
I47304
sg20
I0
sg21
I1
sg22
I47304
sg23
g5
sg24
S'PIRO JIM'
p168
sg26
g5
sg27
g5
sa(dp169
g3
I3093
sg4
g5
sg6
I86174
sg7
I01
sg8
g5
sg9
S'david.delainey@enron.com'
p170
sg11
I1294981
sg12
g5
sg13
I2097
sg14
g5
sg15
I3069
sg16
I1661
sg17
g5
sg18
I3000000
sg19
I3614261
sg20
I66
sg21
I609
sg22
I1323148
sg23
I365163
sg24
S'DELAINEY DAVID W'
p171
sg26
I4747979
sg27
I2291113
sa(dp172
g3
g5
sg4
I204075
sg6
I57727
sg7
I00
sg8
g5
sg9
S'tod.lindholm@enron.com'
p173
sg11
I175000
sg12
g5
sg13
g5
sg14
g5
sg15
g5
sg16
I2630
sg17
g5
sg18
I200000
sg19
I3064208
sg20
g5
sg21
g5
sg22
I514847
sg23
I236457
sg24
S'LINDHOLM TOD A'
p174
sg26
I875889
sg27
I2549361
sa(dp175
g3
I4273
sg4
I202911
sg6
I99832
sg7
I01
sg8
I-300000
sg9
S'kenneth.lay@enron.com'
p176
sg11
I3600000
sg12
g5
sg13
I2411
sg14
I81525000
sg15
I36
sg16
I10359729
sg17
g5
sg18
I7000000
sg19
I49110078
sg20
I123
sg21
I16
sg22
I14761694
sg23
I1072321
sg24
S'LAY KENNETH L'
p177
sg26
I103559793
sg27
I34348384
sa(dp178
g3
g5
sg4
g5
sg6
I9410
sg7
I00
sg8
I-75000
sg9
S'bob.butts@enron.com'
p179
sg11
I175000
sg12
g5
sg13
g5
sg14
g5
sg15
g5
sg16
I150656
sg17
g5
sg18
I750000
sg19
I417619
sg20
g5
sg21
g5
sg22
I417619
sg23
I261516
sg24
S'BUTTS ROBERT H'
p180
sg26
I1271582
sg27
g5
sa(dp181
g3
I1184
sg4
I77716
sg6
I63791
sg7
I00
sg8
g5
sg9
S'cindy.olson@enron.com'
p182
sg11
I100000
sg12
g5
sg13
I856
sg14
g5
sg15
I52
sg16
I972
sg17
g5
sg18
I750000
sg19
I2606763
sg20
I20
sg21
I15
sg22
I969729
sg23
I329078
sg24
S'OLSON CINDY K'
p183
sg26
I1321557
sg27
I1637034
sa(dp184
g3
I894
sg4
g5
sg6
g5
sg7
I00
sg8
g5
sg9
S'rebecca.mcdonald@enron.com'
p185
sg11
g5
sg12
g5
sg13
I720
sg14
g5
sg15
I13
sg16
g5
sg17
g5
sg18
g5
sg19
I1691366
sg20
I54
sg21
I1
sg22
I934065
sg23
g5
sg24
S'MCDONALD REBECCA'
p186
sg26
g5
sg27
I757301
sa(dp187
g3
I1744
sg4
g5
sg6
I228763
sg7
I00
sg8
I-125000
sg9
S'george.mcclellan@enron.com'
p188
sg11
g5
sg12
g5
sg13
I1469
sg14
g5
sg15
I49
sg16
I51587
sg17
g5
sg18
I900000
sg19
I947861
sg20
I52
sg21
I0
sg22
I441096
sg23
I263413
sg24
S'MCCLELLAN GEORGE'
p189
sg26
I1318763
sg27
I506765
sa(dp190
g3
g5
sg4
g5
sg6
I48357
sg7
I00
sg8
I-280000
sg9
S'robert.hermann@enron.com'
p191
sg11
I150000
sg12
g5
sg13
g5
sg14
g5
sg15
g5
sg16
I416441
sg17
g5
sg18
I700000
sg19
I668132
sg20
g5
sg21
g5
sg22
I480632
sg23
I262663
sg24
S'HERMANN ROBERT J'
p192
sg26
I1297461
sg27
I187500
sa(dp193
g3
g5
sg4
g5
sg6
g5
sg7
I00
sg8
g5
sg9
S'matthew.scrimshaw@enron.com'
p194
sg11
g5
sg12
g5
sg13
g5
sg14
g5
sg15
g5
sg16
g5
sg17
g5
sg18
g5
sg19
I759557
sg20
g5
sg21
g5
sg22
g5
sg23
g5
sg24
S'SCRIMSHAW MATTHEW'
p195
sg26
g5
sg27
I759557
sa(dp196
g3
I4009
sg4
I2157527
sg6
I76169
sg7
I00
sg8
I-934484
sg9
S'mark.haedicke@enron.com'
p197
sg11
I983346
sg12
I-329825
sg13
I1847
sg14
g5
sg15
I1941
sg16
I52382
sg17
g5
sg18
I1150000
sg19
I803094
sg20
I180
sg21
I61
sg22
I524169
sg23
I374125
sg24
S'HAEDICKE MARK E'
p198
sg26
I3859065
sg27
I608750
sa(dp199
g3
I1858
sg4
g5
sg6
I65907
sg7
I01
sg8
I-833
sg9
S'raymond.bowen@enron.com'
p200
sg11
I974293
sg12
g5
sg13
I1593
sg14
g5
sg15
I27
sg16
I1621
sg17
g5
sg18
I1350000
sg19
I252055
sg20
I140
sg21
I15
sg22
I252055
sg23
I278601
sg24
S'BOWEN JR RAYMOND M'
p201
sg26
I2669589
sg27
g5
sa(dp202
g3
I936
sg4
g5
sg6
I23870
sg7
I00
sg8
g5
sg9
S'jay.fitzgerald@enron.com'
p203
sg11
I556416
sg12
g5
sg13
I723
sg14
g5
sg15
I16
sg16
I285414
sg17
g5
sg18
I350000
sg19
I1621236
sg20
I1
sg21
I8
sg22
I956775
sg23
I199157
sg24
S'FITZGERALD JAY L'
p204
sg26
I1414857
sg27
I664461
sa(dp205
g3
I672
sg4
g5
sg6
g5
sg7
I00
sg8
g5
sg9
S'michael.moran@enron.com'
p206
sg11
g5
sg12
g5
sg13
I127
sg14
g5
sg15
I19
sg16
g5
sg17
g5
sg18
g5
sg19
I221141
sg20
I0
sg21
I0
sg22
I161602
sg23
g5
sg24
S'MORAN MICHAEL P'
p207
sg26
g5
sg27
I59539
sa(dp208
g3
I1671
sg4
g5
sg6
I14689
sg7
I00
sg8
g5
sg9
S'brian.redmond@enron.com'
p209
sg11
g5
sg12
g5
sg13
I1063
sg14
g5
sg15
I221
sg16
g5
sg17
g5
sg18
g5
sg19
I7890324
sg20
I204
sg21
I49
sg22
I381285
sg23
I96840
sg24
S'REDMOND BRIAN L'
p210
sg26
I111529
sg27
I7509039
sa(dp211
g3
I7991
sg4
I2144013
sg6
I17355
sg7
I01
sg8
I-2334434
sg9
S'tim.belden@enron.com'
p212
sg11
g5
sg12
g5
sg13
I5521
sg14
g5
sg15
I484
sg16
I210698
sg17
g5
sg18
I5249999
sg19
I1110705
sg20
I228
sg21
I108
sg22
I157569
sg23
I213999
sg24
S'BELDEN TIMOTHY N'
p213
sg26
I5501630
sg27
I953136
sa(dp214
g3
I904
sg4
g5
sg6
I25785
sg7
I00
sg8
g5
sg9
S'w.duran@enron.com'
p215
sg11
I1105218
sg12
g5
sg13
I599
sg14
g5
sg15
I12
sg16
I1568
sg17
g5
sg18
I750000
sg19
I1640910
sg20
I106
sg21
I3
sg22
I189041
sg23
I210692
sg24
S'DURAN WILLIAM D'
p216
sg26
I2093263
sg27
I1451869
sa(dp217
g3
I266
sg4
I16586
sg6
I46145
sg7
I00
sg8
g5
sg9
S'terence.thorn@enron.com'
p218
sg11
I200000
sg12
g5
sg13
I73
sg14
g5
sg15
I41
sg16
I426629
sg17
g5
sg18
g5
sg19
I4817796
sg20
I0
sg21
I0
sg22
I365320
sg23
I222093
sg24
S'THORN TERENCE H'
p219
sg26
I911453
sg27
I4452476
sa(dp220
g3
g5
sg4
g5
sg6
I55921
sg7
I01
sg8
I-1386055
sg9
S'andrew.fastow@enron.com'
p221
sg11
I1736055
sg12
g5
sg13
g5
sg14
g5
sg15
g5
sg16
I277464
sg17
g5
sg18
I1300000
sg19
I1794412
sg20
g5
sg21
g5
sg22
I1794412
sg23
I440698
sg24
S'FASTOW ANDREW S'
p222
sg26
I2424083
sg27
g5
sa(dp223
g3
I57
sg4
I181755
sg6
g5
sg7
I00
sg8
g5
sg9
S'tracy.foy@enron.com'
p224
sg11
g5
sg12
g5
sg13
I2
sg14
g5
sg15
I13
sg16
g5
sg17
g5
sg18
g5
sg19
I343434
sg20
I0
sg21
I0
sg22
g5
sg23
g5
sg24
S'FOY JOE'
p225
sg26
I181755
sg27
I343434
sa(dp226
g3
I2598
sg4
g5
sg6
I35818
sg7
I01
sg8
I-262500
sg9
S'christopher.calger@enron.com'
p227
sg11
I375304
sg12
g5
sg13
I2188
sg14
g5
sg15
I144
sg16
I486
sg17
g5
sg18
I1250000
sg19
I126027
sg20
I199
sg21
I25
sg22
I126027
sg23
I240189
sg24
S'CALGER CHRISTOPHER F'
p228
sg26
I1639297
sg27
g5
sa(dp229
g3
I905
sg4
g5
sg6
I46950
sg7
I01
sg8
I-3504386
sg9
S'ken.rice@enron.com'
p230
sg11
I1617011
sg12
g5
sg13
I864
sg14
g5
sg15
I18
sg16
I174839
sg17
g5
sg18
I1750000
sg19
I22542539
sg20
I42
sg21
I4
sg22
I2748364
sg23
I420636
sg24
S'RICE KENNETH D'
p231
sg26
I505050
sg27
I19794175
sa(dp232
g3
I4607
sg4
g5
sg6
I83585
sg7
I00
sg8
g5
sg9
S'vince.kaminski@enron.com'
p233
sg11
I323466
sg12
g5
sg13
I583
sg14
g5
sg15
I14368
sg16
I4669
sg17
g5
sg18
I400000
sg19
I976037
sg20
I41
sg21
I171
sg22
I126027
sg23
I275101
sg24
S'KAMINSKI WINCENTY J'
p234
sg26
I1086821
sg27
I850010
sa(dp235
g3
I102
sg4
g5
sg6
I27861
sg7
I00
sg8
I-41250
sg9
S'chip.cox@enron.com'
p236
sg11
g5
sg12
g5
sg13
I71
sg14
g5
sg15
I33
sg16
I494
sg17
g5
sg18
I800000
sg19
I495633
sg20
I0
sg21
I4
sg22
I378082
sg23
I314288
sg24
S'COX DAVID'
p237
sg26
I1101393
sg27
I117551
sa(dp238
g3
g5
sg4
g5
sg6
I18834
sg7
I00
sg8
g5
sg9
S'jere.overdyke@enron.com'
p239
sg11
I135836
sg12
g5
sg13
g5
sg14
g5
sg15
g5
sg16
I176
sg17
g5
sg18
g5
sg19
I7307594
sg20
g5
sg21
g5
sg22
I2041016
sg23
I94941
sg24
S'OVERDYKE JR JERE C'
p240
sg26
I249787
sg27
I5266578
sa(dp241
g3
g5
sg4
g5
sg6
I16514
sg7
I00
sg8
g5
sg9
S'frank.stabler@enron.com'
p242
sg11
g5
sg12
g5
sg13
g5
sg14
g5
sg15
g5
sg16
I356071
sg17
g5
sg18
I500000
sg19
I511734
sg20
g5
sg21
g5
sg22
I511734
sg23
I239502
sg24
S'STABLER FRANK'
p243
sg26
I1112087
sg27
g5
sa(dp244
g3
I3627
sg4
g5
sg6
I29336
sg7
I01
sg8
g5
sg9
S'jeff.skilling@enron.com'
p245
sg11
I1920000
sg12
g5
sg13
I2042
sg14
g5
sg15
I108
sg16
I22122
sg17
g5
sg18
I5600000
sg19
I26093672
sg20
I88
sg21
I30
sg22
I6843672
sg23
I1111258
sg24
S'SKILLING JEFFREY K'
p246
sg26
I8682716
sg27
I19250000
sa(dp247
g3
I613
sg4
g5
sg6
g5
sg7
I00
sg8
g5
sg9
S'jeffrey.sherrick@enron.com'
p248
sg11
g5
sg12
g5
sg13
I583
sg14
g5
sg15
I25
sg16
g5
sg17
g5
sg18
g5
sg19
I1832468
sg20
I39
sg21
I18
sg22
I405999
sg23
g5
sg24
S'SHERRICK JEFFREY B'
p249
sg26
g5
sg27
I1426469
sa(dp250
g3
g5
sg4
I564348
sg6
g5
sg7
I00
sg8
g5
sg9
S'james.prentice@enron.com'
p251
sg11
g5
sg12
g5
sg13
g5
sg14
g5
sg15
g5
sg16
g5
sg17
g5
sg18
g5
sg19
I1095040
sg20
g5
sg21
g5
sg22
I208809
sg23
g5
sg24
S'PRENTICE JAMES'
p252
sg26
I564348
sg27
I886231
sa(dp253
g3
I898
sg4
g5
sg6
I31653
sg7
I00
sg8
g5
sg9
S'mark.pickering@enron.com'
p254
sg11
g5
sg12
g5
sg13
I728
sg14
I400000
sg15
I67
sg16
g5
sg17
g5
sg18
I300000
sg19
I28798
sg20
I7
sg21
I0
sg22
g5
sg23
I655037
sg24
S'PICKERING MARK R'
p255
sg26
I1386690
sg27
I28798
sa(dp256
g3
I12754
sg4
g5
sg6
I41953
sg7
I00
sg8
g5
sg9
S'steven.kean@enron.com'
p257
sg11
I300000
sg12
g5
sg13
I3639
sg14
g5
sg15
I6759
sg16
I1231
sg17
g5
sg18
I1000000
sg19
I6153642
sg20
I140
sg21
I387
sg22
I4131594
sg23
I404338
sg24
S'KEAN STEVEN J'
p258
sg26
I1747522
sg27
I2022048
sa(dp259
g3
I517
sg4
g5
sg6
g5
sg7
I00
sg8
g5
sg9
S'kulvinder.fowler@enron.com'
p260
sg11
g5
sg12
g5
sg13
I10
sg14
g5
sg15
I36
sg16
g5
sg17
g5
sg18
g5
sg19
I1884748
sg20
I0
sg21
I0
sg22
I560170
sg23
g5
sg24
S'FOWLER PEGGY'
p261
sg26
g5
sg27
I1324578
sa(dp262
g3
I400
sg4
I831299
sg6
g5
sg7
I00
sg8
I-583325
sg9
S'george.wasaff@enron.com'
p263
sg11
I200000
sg12
g5
sg13
I337
sg14
g5
sg15
I30
sg16
I1425
sg17
g5
sg18
I325000
sg19
I2056427
sg20
I22
sg21
I7
sg22
I388167
sg23
I259996
sg24
S'WASAFF GEORGE'
p264
sg26
I1034395
sg27
I1668260
sa(dp265
g3
g5
sg4
g5
sg6
I81353
sg7
I00
sg8
g5
sg9
S'thomas.white@enron.com'
p266
sg11
g5
sg12
g5
sg13
g5
sg14
g5
sg15
g5
sg16
I1085463
sg17
g5
sg18
I450000
sg19
I15144123
sg20
g5
sg21
g5
sg22
I13847074
sg23
I317543
sg24
S'WHITE JR THOMAS E'
p267
sg26
I1934359
sg27
I1297049
sa(dp268
g3
g5
sg4
g5
sg6
g5
sg7
I00
sg8
g5
sg9
S'diomedes.christodoulou@enron.com'
p269
sg11
g5
sg12
g5
sg13
g5
sg14
g5
sg15
g5
sg16
g5
sg17
g5
sg18
g5
sg19
I6077885
sg20
g5
sg21
g5
sg22
I950730
sg23
g5
sg24
S'CHRISTODOULOU DIOMEDES'
p270
sg26
g5
sg27
I5127155
sa(dp271
g3
I2902
sg4
I2869717
sg6
I13868
sg7
I00
sg8
I-3081055
sg9
S'phillip.allen@enron.com'
p272
sg11
I304805
sg12
I-126027
sg13
I1407
sg14
g5
sg15
I2195
sg16
I152
sg17
g5
sg18
I4175000
sg19
I1729541
sg20
I47
sg21
I65
sg22
I126027
sg23
I201955
sg24
S'ALLEN PHILLIP K'
p273
sg26
I4484442
sg27
I1729541
sa(dp274
g3
I3136
sg4
I187469
sg6
I116337
sg7
I00
sg8
g5
sg9
S'vicki.sharp@enron.com'
p275
sg11
I422158
sg12
g5
sg13
I2477
sg14
g5
sg15
I136
sg16
I2401
sg17
g5
sg18
I600000
sg19
I494136
sg20
I24
sg21
I6
sg22
I213063
sg23
I248146
sg24
S'SHARP VICTORIA T'
p276
sg26
I1576511
sg27
I281073
sa(dp277
g3
I1486
sg4
g5
sg6
I49288
sg7
I00
sg8
g5
sg9
S'michael.brown@enron.com'
p278
sg11
g5
sg12
g5
sg13
I761
sg14
g5
sg15
I41
sg16
g5
sg17
g5
sg18
g5
sg19
g5
sg20
I13
sg21
I1
sg22
g5
sg23
g5
sg24
S'BROWN MICHAEL'
p279
sg26
I49288
sg27
g5
sa(dp280
g3
I719
sg4
g5
sg6
g5
sg7
I00
sg8
g5
sg9
S'james.hughes@enron.com'
p281
sg11
g5
sg12
g5
sg13
I589
sg14
g5
sg15
I34
sg16
g5
sg17
g5
sg18
g5
sg19
I1118394
sg20
I35
sg21
I5
sg22
I363428
sg23
g5
sg24
S'HUGHES JAMES A'
p282
sg26
g5
sg27
I754966
sa(dp283
g3
g5
sg4
g5
sg6
I35812
sg7
I00
sg8
g5
sg9
S'richard.dimichele@enron.com'
p284
sg11
I694862
sg12
g5
sg13
g5
sg14
g5
sg15
g5
sg16
I374689
sg17
g5
sg18
I1000000
sg19
I8317782
sg20
g5
sg21
g5
sg22
I126027
sg23
I262788
sg24
S'DIMICHELE RICHARD G'
p285
sg26
I2368151
sg27
I8191755
sa(dp286
g3
I523
sg4
g5
sg6
g5
sg7
I00
sg8
g5
sg9
S'sanjay.bhatnagar@enron.com'
p287
sg11
g5
sg12
I15456290
sg13
I463
sg14
g5
sg15
I29
sg16
I137864
sg17
I137864
sg18
g5
sS'total_stock_value'
p288
S'NaN'
p289
sg20
I0
sg21
I1
sg22
I-2604490
sg23
g5
sg24
S'BHATNAGAR SANJAY'
p290
sg26
I15456290
sg27
I2604490
sa(dp291
g3
I312
sg4
g5
sg6
g5
sg7
I00
sg8
I-159792
sg9
S'rebecca.carter@enron.com'
p292
sg11
I75000
sg12
I-307301
sg13
I196
sg14
g5
sg15
I15
sg16
I540
sg17
g5
sg18
I300000
sg19
g5
sg20
I29
sg21
I7
sg22
I307301
sg23
I261809
sg24
S'CARTER REBECCA C'
p293
sg26
I477557
sg27
g5
sa(dp294
g3
I1088
sg4
g5
sg6
I600
sg7
I00
sg8
g5
sg9
S'john.buchanan@enron.com'
p295
sg11
I304805
sg12
g5
sg13
I23
sg14
g5
sg15
I125
sg16
I1215
sg17
g5
sg18
I500000
sg19
I1014505
sg20
I0
sg21
I0
sg22
I189041
sg23
I248017
sg24
S'BUCHANAN HAROLD G'
p296
sg26
I1054637
sg27
I825464
sa(dp297
g3
I2192
sg4
g5
sg6
I57580
sg7
I00
sg8
g5
sg9
S'julia.murray@enron.com'
p298
sg11
I125000
sg12
g5
sg13
I395
sg14
g5
sg15
I45
sg16
I330
sg17
g5
sg18
I400000
sg19
I597461
sg20
I11
sg21
I2
sg22
I196983
sg23
I229284
sg24
S'MURRAY JULIA H'
p299
sg26
I812194
sg27
I400478
sa(dp300
g3
I209
sg4
g5
sg6
I48405
sg7
I00
sg8
g5
sg9
S'kevin.garland@enron.com'
p301
sg11
I375304
sg12
g5
sg13
I178
sg14
g5
sg15
I44
sg16
I60814
sg17
g5
sg18
I850000
sg19
I896153
sg20
I10
sg21
I27
sg22
I259907
sg23
I231946
sg24
S'GARLAND C KEVIN'
p302
sg26
I1566469
sg27
I636246
sa(dp303
g3
I176
sg4
g5
sg6
I28164
sg7
I00
sg8
g5
sg9
S'keith.dodson@enron.com'
p304
sg11
g5
sg12
g5
sg13
I114
sg14
g5
sg15
I14
sg16
I774
sg17
g5
sg18
I70000
sg19
g5
sg20
I10
sg21
I3
sg22
g5
sg23
I221003
sg24
S'DODSON KEITH'
p305
sg26
I319941
sg27
g5
sa(dp306
g3
g5
sg4
g5
sg6
I53947
sg7
I01
sg8
g5
sg9
S'scott.yeager@enron.com'
p307
sg11
g5
sg12
g5
sg13
g5
sg14
g5
sg15
g5
sg16
I147950
sg17
g5
sg18
g5
sg19
I11884758
sg20
g5
sg21
g5
sg22
I3576206
sg23
I158403
sg24
S'YEAGER F SCOTT'
p308
sg26
I360300
sg27
I8308552
sa(dp309
g3
g5
sg4
I10259
sg6
I77978
sg7
I01
sg8
g5
sg9
S'joe.hirko@enron.com'
p310
sg11
g5
sg12
g5
sg13
g5
sg14
g5
sg15
g5
sg16
I2856
sg17
g5
sg18
g5
sg19
I30766064
sg20
g5
sg21
g5
sg22
g5
sg23
g5
sg24
S'HIRKO JOSEPH'
p311
sg26
I91093
sg27
I30766064
sa(dp312
g3
I2572
sg4
g5
sg6
I3475
sg7
I00
sg8
g5
sg9
S'janet.dietrich@enron.com'
p313
sg11
I556416
sg12
g5
sg13
I1902
sg14
g5
sg15
I63
sg16
I473
sg17
g5
sg18
I600000
sg19
I1865087
sg20
I305
sg21
I14
sg22
I315068
sg23
I250100
sg24
S'DIETRICH JANET R'
p314
sg26
I1410464
sg27
I1550019
sa(dp315
g3
I2181
sg4
g5
sg6
I51124
sg7
I00
sg8
I-1284000
sg9
S'james.derrick@enron.com'
p316
sg11
I484000
sg12
I-1787380
sg13
I1401
sg14
g5
sg15
I909
sg16
I7482
sg17
g5
sg18
I800000
sg19
I8831913
sg20
I64
sg21
I20
sg22
I1787380
sg23
I492375
sg24
S'DERRICK JR. JAMES V'
p317
sg26
I550981
sg27
I8831913
sa(dp318
g3
I3275
sg4
I6426990
sg6
I86987
sg7
I00
sg8
I-3367011
sg9
S'mark.frevert@enron.com'
p319
sg11
I1617011
sg12
g5
sg13
I2979
sg14
I2000000
sg15
I21
sg16
I7427621
sg17
g5
sg18
I2000000
sg19
I14622185
sg20
I242
sg21
I6
sg22
I4188667
sg23
I1060932
sg24
S'FREVERT MARK A'
p320
sg26
I17252530
sg27
I10433518
sa(dp321
g3
g5
sg4
g5
sg6
I32047
sg7
I00
sg8
g5
sg9
S'lou.pai@enron.com'
p322
sg11
g5
sg12
g5
sg13
g5
sg14
g5
sg15
g5
sg16
I1829457
sg17
g5
sg18
I1000000
sg19
I23817930
sg20
g5
sg21
g5
sg22
I8453763
sg23
I261879
sg24
S'PAI LOU L'
p323
sg26
I3123383
sg27
I15364167
sa(dp324
g3
g5
sg4
I260455
sg6
I129142
sg7
I00
sg8
I-201641
sg9
S'frank.bay@enron.com'
p325
sg11
g5
sg12
I-82782
sg13
g5
sg14
g5
sg15
g5
sg16
I69
sg17
g5
sg18
I400000
sg19
I63014
sg20
g5
sg21
g5
sg22
I145796
sg23
I239671
sg24
S'BAY FRANKLIN R'
p326
sg26
I827696
sg27
g5
sa(dp327
g3
I2649
sg4
g5
sg6
g5
sg7
I00
sg8
g5
sg9
S'rod.hayslett@enron.com'
p328
sg11
g5
sg12
g5
sg13
I571
sg14
g5
sg15
I1061
sg16
g5
sg17
g5
sg18
g5
sg19
I346663
sg20
I35
sg21
I38
sg22
I346663
sg23
g5
sg24
S'HAYSLETT RODERICK J'
p329
sg26
g5
sg27
g5
sa(dp330
g3
I1755
sg4
g5
sg6
I95924
sg7
I00
sg8
g5
sg9
S'jim.fallon@enron.com'
p331
sg11
I374347
sg12
g5
sg13
I1604
sg14
g5
sg15
I75
sg16
I401481
sg17
g5
sg18
I2500000
sg19
I2332399
sg20
I42
sg21
I37
sg22
I1392142
sg23
I304588
sg24
S'FALLON JAMES B'
p332
sg26
I3676340
sg27
I940257
sa(dp333
g3
I2374
sg4
g5
sg6
I127017
sg7
I01
sg8
g5
sg9
S'mark.koenig@enron.com'
p334
sg11
I300000
sg12
g5
sg13
I2271
sg14
g5
sg15
I61
sg16
I150458
sg17
g5
sg18
I700000
sg19
I1920055
sg20
I53
sg21
I15
sg22
I1248318
sg23
I309946
sg24
S'KOENIG MARK E'
p335
sg26
I1587421
sg27
I671737
sa(dp336
g3
I496
sg4
g5
sg6
I28093
sg7
I00
sg8
g5
sg9
S'larry.izzo@enron.com'
p337
sg11
I312500
sg12
g5
sg13
I437
sg14
g5
sg15
I19
sg16
I1553729
sg17
g5
sg18
g5
sg19
I5819980
sg20
I28
sg21
I5
sg22
I3654808
sg23
I85274
sg24
S'IZZO LAWRENCE L'
p338
sg26
I1979596
sg27
I2165172
sa(dp339
g3
I460
sg4
g5
sg6
g5
sg7
I00
sg8
I-575000
sg9
S'elizabeth.tilney@enron.com'
p340
sg11
I275000
sg12
g5
sg13
I379
sg14
g5
sg15
I19
sg16
I152055
sg17
g5
sg18
I300000
sg19
I1168042
sg20
I10
sg21
I11
sg22
I576792
sg23
I247338
sg24
S'TILNEY ELIZABETH A'
p341
sg26
I399393
sg27
I591250
sa(dp342
g3
I1522
sg4
I85430
sg6
I8211
sg7
I00
sg8
g5
sg9
S'a..martin@enron.com'
p343
sg11
I5145434
sg12
g5
sg13
I477
sg14
g5
sg15
I230
sg16
I2818454
sg17
g5
sg18
g5
sg19
I2070306
sg20
I8
sg21
I0
sg22
g5
sg23
I349487
sg24
S'MARTIN AMANDA K'
p344
sg26
I8407016
sg27
I2070306
sa(dp345
g3
I3523
sg4
I649584
sg6
g5
sg7
I00
sg8
I-694862
sg9
S'rick.buy@enron.com'
p346
sg11
I769862
sg12
g5
sg13
I2333
sg14
g5
sg15
I1053
sg16
I400572
sg17
g5
sg18
I900000
sg19
I3444470
sg20
I156
sg21
I71
sg22
I901657
sg23
I330546
sg24
S'BUY RICHARD B'
p347
sg26
I2355702
sg27
I2542813
sa(dp348
g3
I1892
sg4
g5
sg6
I30674
sg7
I01
sg8
I-235000
sg9
S'richard.causey@enron.com'
p349
sg11
I350000
sg12
g5
sg13
I1585
sg14
g5
sg15
I49
sg16
I307895
sg17
g5
sg18
I1000000
sg19
I2502063
sg20
I58
sg21
I12
sg22
I2502063
sg23
I415189
sg24
S'CAUSEY RICHARD A'
p350
sg26
I1868758
sg27
g5
sa(dp351
g3
I533
sg4
I227449
sg6
g5
sg7
I00
sg8
g5
sg9
S'mitchell.taylor@enron.com'
p352
sg11
g5
sg12
g5
sg13
I300
sg14
g5
sg15
I29
sg16
g5
sg17
g5
sg18
I600000
sg19
I3745048
sg20
I0
sg21
I0
sg22
I563798
sg23
I265214
sg24
S'TAYLOR MITCHELL S'
p353
sg26
I1092663
sg27
I3181250
sa(dp354
g3
I865
sg4
g5
sg6
I96268
sg7
I00
sg8
I-300000
sg9
S'jeff.donahue@enron.com'
p355
sg11
g5
sg12
g5
sg13
I772
sg14
g5
sg15
I22
sg16
I891
sg17
g5
sg18
I800000
sg19
I1080988
sg20
I188
sg21
I11
sg22
I315068
sg23
I278601
sg24
S'DONAHUE JR JEFFREY M'
p356
sg26
I875760
sg27
I765920
sa(dp357
g3
I873
sg4
g5
sg6
I125978
sg7
I01
sg8
g5
sg9
S'ben.glisan@enron.com'
p358
sg11
I71023
sg12
g5
sg13
I874
sg14
g5
sg15
I16
sg16
I200308
sg17
g5
sg18
I600000
sg19
I778546
sg20
I52
sg21
I6
sg22
I393818
sg23
I274975
sg24
S'GLISAN JR BEN F'
p359
sg26
I1272284
sg27
I384728
sa.